
my_mmc.elf:     file format elf32-littlearm


Disassembly of section .text:

80100000 <_start>:
80100000:	e59fd028 	ldr	sp, [pc, #40]	; 80100030 <clean+0x14>
80100004:	eb000001 	bl	80100010 <clean_bss>
80100008:	fb000068 	blx	801001b2 <main>

8010000c <halt>:
8010000c:	eafffffe 	b	8010000c <halt>

80100010 <clean_bss>:
80100010:	e59f101c 	ldr	r1, [pc, #28]	; 80100034 <clean+0x18>
80100014:	e59f201c 	ldr	r2, [pc, #28]	; 80100038 <clean+0x1c>
80100018:	e3a03000 	mov	r3, #0

8010001c <clean>:
8010001c:	e5813000 	str	r3, [r1]
80100020:	e2811004 	add	r1, r1, #4
80100024:	e1510002 	cmp	r1, r2
80100028:	1afffffb 	bne	8010001c <clean>
8010002c:	e1a0f00e 	mov	pc, lr
80100030:	80200000 	eorhi	r0, r0, r0
80100034:	80101224 	andshi	r1, r0, r4, lsr #4
80100038:	801012ac 	andshi	r1, r0, ip, lsr #5

8010003c <Uart_Init>:
8010003c:	b480      	push	{r7}
8010003e:	af00      	add	r7, sp, #0
80100040:	f241 2224 	movw	r2, #4644	; 0x1224
80100044:	f2c8 0210 	movt	r2, #32784	; 0x8010
80100048:	2384      	movs	r3, #132	; 0x84
8010004a:	f2c0 230e 	movt	r3, #526	; 0x20e
8010004e:	6013      	str	r3, [r2, #0]
80100050:	f241 2228 	movw	r2, #4648	; 0x1228
80100054:	f2c8 0210 	movt	r2, #32784	; 0x8010
80100058:	2388      	movs	r3, #136	; 0x88
8010005a:	f2c0 230e 	movt	r3, #526	; 0x20e
8010005e:	6013      	str	r3, [r2, #0]
80100060:	f241 2328 	movw	r3, #4648	; 0x1228
80100064:	f2c8 0310 	movt	r3, #32784	; 0x8010
80100068:	681b      	ldr	r3, [r3, #0]
8010006a:	2200      	movs	r2, #0
8010006c:	601a      	str	r2, [r3, #0]
8010006e:	f241 2324 	movw	r3, #4644	; 0x1224
80100072:	f2c8 0310 	movt	r3, #32784	; 0x8010
80100076:	681b      	ldr	r3, [r3, #0]
80100078:	2200      	movs	r2, #0
8010007a:	601a      	str	r2, [r3, #0]
8010007c:	2300      	movs	r3, #0
8010007e:	f2c0 2302 	movt	r3, #514	; 0x202
80100082:	2200      	movs	r2, #0
80100084:	f2c0 2202 	movt	r2, #514	; 0x202
80100088:	f8d2 2080 	ldr.w	r2, [r2, #128]	; 0x80
8010008c:	f042 0201 	orr.w	r2, r2, #1
80100090:	f8c3 2080 	str.w	r2, [r3, #128]	; 0x80
80100094:	2200      	movs	r2, #0
80100096:	f2c0 2202 	movt	r2, #514	; 0x202
8010009a:	2300      	movs	r3, #0
8010009c:	f2c0 2302 	movt	r3, #514	; 0x202
801000a0:	f8d3 3084 	ldr.w	r3, [r3, #132]	; 0x84
801000a4:	f443 4380 	orr.w	r3, r3, #16384	; 0x4000
801000a8:	f043 0326 	orr.w	r3, r3, #38	; 0x26
801000ac:	f8c2 3084 	str.w	r3, [r2, #132]	; 0x84
801000b0:	2300      	movs	r3, #0
801000b2:	f2c0 2302 	movt	r3, #514	; 0x202
801000b6:	2200      	movs	r2, #0
801000b8:	f2c0 2202 	movt	r2, #514	; 0x202
801000bc:	f8d2 2088 	ldr.w	r2, [r2, #136]	; 0x88
801000c0:	f042 0204 	orr.w	r2, r2, #4
801000c4:	f8c3 2088 	str.w	r2, [r3, #136]	; 0x88
801000c8:	2300      	movs	r3, #0
801000ca:	f2c0 2302 	movt	r3, #514	; 0x202
801000ce:	f44f 7220 	mov.w	r2, #640	; 0x280
801000d2:	f8c3 2090 	str.w	r2, [r3, #144]	; 0x90
801000d6:	2300      	movs	r3, #0
801000d8:	f2c0 2302 	movt	r3, #514	; 0x202
801000dc:	2247      	movs	r2, #71	; 0x47
801000de:	f8c3 20a4 	str.w	r2, [r3, #164]	; 0xa4
801000e2:	2300      	movs	r3, #0
801000e4:	f2c0 2302 	movt	r3, #514	; 0x202
801000e8:	f640 4234 	movw	r2, #3124	; 0xc34
801000ec:	f8c3 20a8 	str.w	r2, [r3, #168]	; 0xa8
801000f0:	2300      	movs	r3, #0
801000f2:	f2c0 2302 	movt	r3, #514	; 0x202
801000f6:	2200      	movs	r2, #0
801000f8:	f2c0 2202 	movt	r2, #514	; 0x202
801000fc:	f8d2 2080 	ldr.w	r2, [r2, #128]	; 0x80
80100100:	f042 0201 	orr.w	r2, r2, #1
80100104:	f8c3 2080 	str.w	r2, [r3, #128]	; 0x80
80100108:	bf00      	nop
8010010a:	46bd      	mov	sp, r7
8010010c:	f85d 7b04 	ldr.w	r7, [sp], #4
80100110:	4770      	bx	lr

80100112 <PutChar>:
80100112:	b480      	push	{r7}
80100114:	b083      	sub	sp, #12
80100116:	af00      	add	r7, sp, #0
80100118:	6078      	str	r0, [r7, #4]
8010011a:	bf00      	nop
8010011c:	2300      	movs	r3, #0
8010011e:	f2c0 2302 	movt	r3, #514	; 0x202
80100122:	f8d3 3098 	ldr.w	r3, [r3, #152]	; 0x98
80100126:	f003 0308 	and.w	r3, r3, #8
8010012a:	2b00      	cmp	r3, #0
8010012c:	d0f6      	beq.n	8010011c <PutChar+0xa>
8010012e:	2300      	movs	r3, #0
80100130:	f2c0 2302 	movt	r3, #514	; 0x202
80100134:	687a      	ldr	r2, [r7, #4]
80100136:	b2d2      	uxtb	r2, r2
80100138:	641a      	str	r2, [r3, #64]	; 0x40
8010013a:	bf00      	nop
8010013c:	370c      	adds	r7, #12
8010013e:	46bd      	mov	sp, r7
80100140:	f85d 7b04 	ldr.w	r7, [sp], #4
80100144:	4770      	bx	lr

80100146 <GetChar>:
80100146:	b480      	push	{r7}
80100148:	af00      	add	r7, sp, #0
8010014a:	bf00      	nop
8010014c:	2300      	movs	r3, #0
8010014e:	f2c0 2302 	movt	r3, #514	; 0x202
80100152:	f8d3 3098 	ldr.w	r3, [r3, #152]	; 0x98
80100156:	f003 0301 	and.w	r3, r3, #1
8010015a:	2b00      	cmp	r3, #0
8010015c:	d0f6      	beq.n	8010014c <GetChar+0x6>
8010015e:	2300      	movs	r3, #0
80100160:	f2c0 2302 	movt	r3, #514	; 0x202
80100164:	681b      	ldr	r3, [r3, #0]
80100166:	b2db      	uxtb	r3, r3
80100168:	4618      	mov	r0, r3
8010016a:	46bd      	mov	sp, r7
8010016c:	f85d 7b04 	ldr.w	r7, [sp], #4
80100170:	4770      	bx	lr

80100172 <PutStr>:
80100172:	b580      	push	{r7, lr}
80100174:	b082      	sub	sp, #8
80100176:	af00      	add	r7, sp, #0
80100178:	6078      	str	r0, [r7, #4]
8010017a:	e007      	b.n	8010018c <PutStr+0x1a>
8010017c:	687b      	ldr	r3, [r7, #4]
8010017e:	781b      	ldrb	r3, [r3, #0]
80100180:	4618      	mov	r0, r3
80100182:	f7ff ffc6 	bl	80100112 <PutChar>
80100186:	687b      	ldr	r3, [r7, #4]
80100188:	3301      	adds	r3, #1
8010018a:	607b      	str	r3, [r7, #4]
8010018c:	687b      	ldr	r3, [r7, #4]
8010018e:	781b      	ldrb	r3, [r3, #0]
80100190:	2b00      	cmp	r3, #0
80100192:	d1f3      	bne.n	8010017c <PutStr+0xa>
80100194:	bf00      	nop
80100196:	3708      	adds	r7, #8
80100198:	46bd      	mov	sp, r7
8010019a:	bd80      	pop	{r7, pc}

8010019c <raise>:
8010019c:	b480      	push	{r7}
8010019e:	b083      	sub	sp, #12
801001a0:	af00      	add	r7, sp, #0
801001a2:	6078      	str	r0, [r7, #4]
801001a4:	2300      	movs	r3, #0
801001a6:	4618      	mov	r0, r3
801001a8:	370c      	adds	r7, #12
801001aa:	46bd      	mov	sp, r7
801001ac:	f85d 7b04 	ldr.w	r7, [sp], #4
801001b0:	4770      	bx	lr

801001b2 <main>:
801001b2:	b580      	push	{r7, lr}
801001b4:	b08a      	sub	sp, #40	; 0x28
801001b6:	af00      	add	r7, sp, #0
801001b8:	f7ff ff40 	bl	8010003c <Uart_Init>
801001bc:	f000 fc37 	bl	80100a2e <USDHC_Init>
801001c0:	2300      	movs	r3, #0
801001c2:	603b      	str	r3, [r7, #0]
801001c4:	2300      	movs	r3, #0
801001c6:	607b      	str	r3, [r7, #4]
801001c8:	2300      	movs	r3, #0
801001ca:	61fb      	str	r3, [r7, #28]
801001cc:	2300      	movs	r3, #0
801001ce:	623b      	str	r3, [r7, #32]
801001d0:	2300      	movs	r3, #0
801001d2:	61bb      	str	r3, [r7, #24]
801001d4:	463b      	mov	r3, r7
801001d6:	4618      	mov	r0, r3
801001d8:	f000 fd36 	bl	80100c48 <USDHC_SendCommand>
801001dc:	2300      	movs	r3, #0
801001de:	627b      	str	r3, [r7, #36]	; 0x24
801001e0:	e021      	b.n	80100226 <main+0x74>
801001e2:	2301      	movs	r3, #1
801001e4:	603b      	str	r3, [r7, #0]
801001e6:	2300      	movs	r3, #0
801001e8:	607b      	str	r3, [r7, #4]
801001ea:	2300      	movs	r3, #0
801001ec:	61fb      	str	r3, [r7, #28]
801001ee:	f44f 3300 	mov.w	r3, #131072	; 0x20000
801001f2:	623b      	str	r3, [r7, #32]
801001f4:	2304      	movs	r3, #4
801001f6:	61bb      	str	r3, [r7, #24]
801001f8:	463b      	mov	r3, r7
801001fa:	4618      	mov	r0, r3
801001fc:	f000 fd24 	bl	80100c48 <USDHC_SendCommand>
80100200:	68bb      	ldr	r3, [r7, #8]
80100202:	2b00      	cmp	r3, #0
80100204:	da06      	bge.n	80100214 <main+0x62>
80100206:	f241 00a4 	movw	r0, #4260	; 0x10a4
8010020a:	f2c8 0010 	movt	r0, #32784	; 0x8010
8010020e:	f000 f967 	bl	801004e0 <printf>
80100212:	e00b      	b.n	8010022c <main+0x7a>
80100214:	f241 00b8 	movw	r0, #4280	; 0x10b8
80100218:	f2c8 0010 	movt	r0, #32784	; 0x8010
8010021c:	f000 f960 	bl	801004e0 <printf>
80100220:	6a7b      	ldr	r3, [r7, #36]	; 0x24
80100222:	3301      	adds	r3, #1
80100224:	627b      	str	r3, [r7, #36]	; 0x24
80100226:	6a7b      	ldr	r3, [r7, #36]	; 0x24
80100228:	2b09      	cmp	r3, #9
8010022a:	d9da      	bls.n	801001e2 <main+0x30>
8010022c:	2300      	movs	r3, #0
8010022e:	4618      	mov	r0, r3
80100230:	3728      	adds	r7, #40	; 0x28
80100232:	46bd      	mov	sp, r7
80100234:	bd80      	pop	{r7, pc}
	...

80100238 <outc>:
80100238:	b580      	push	{r7, lr}
8010023a:	b082      	sub	sp, #8
8010023c:	af00      	add	r7, sp, #0
8010023e:	6078      	str	r0, [r7, #4]
80100240:	6878      	ldr	r0, [r7, #4]
80100242:	f7ff ff66 	bl	80100112 <PutChar>
80100246:	2300      	movs	r3, #0
80100248:	4618      	mov	r0, r3
8010024a:	3708      	adds	r7, #8
8010024c:	46bd      	mov	sp, r7
8010024e:	bd80      	pop	{r7, pc}

80100250 <outs>:
80100250:	b580      	push	{r7, lr}
80100252:	b082      	sub	sp, #8
80100254:	af00      	add	r7, sp, #0
80100256:	6078      	str	r0, [r7, #4]
80100258:	e006      	b.n	80100268 <outs+0x18>
8010025a:	687b      	ldr	r3, [r7, #4]
8010025c:	1c5a      	adds	r2, r3, #1
8010025e:	607a      	str	r2, [r7, #4]
80100260:	781b      	ldrb	r3, [r3, #0]
80100262:	4618      	mov	r0, r3
80100264:	f7ff ff55 	bl	80100112 <PutChar>
80100268:	687b      	ldr	r3, [r7, #4]
8010026a:	781b      	ldrb	r3, [r3, #0]
8010026c:	2b00      	cmp	r3, #0
8010026e:	d1f4      	bne.n	8010025a <outs+0xa>
80100270:	2300      	movs	r3, #0
80100272:	4618      	mov	r0, r3
80100274:	3708      	adds	r7, #8
80100276:	46bd      	mov	sp, r7
80100278:	bd80      	pop	{r7, pc}

8010027a <out_num>:
8010027a:	b580      	push	{r7, lr}
8010027c:	b098      	sub	sp, #96	; 0x60
8010027e:	af00      	add	r7, sp, #0
80100280:	60f8      	str	r0, [r7, #12]
80100282:	60b9      	str	r1, [r7, #8]
80100284:	603b      	str	r3, [r7, #0]
80100286:	4613      	mov	r3, r2
80100288:	71fb      	strb	r3, [r7, #7]
8010028a:	2300      	movs	r3, #0
8010028c:	65fb      	str	r3, [r7, #92]	; 0x5c
8010028e:	f107 0310 	add.w	r3, r7, #16
80100292:	3340      	adds	r3, #64	; 0x40
80100294:	65bb      	str	r3, [r7, #88]	; 0x58
80100296:	2300      	movs	r3, #0
80100298:	657b      	str	r3, [r7, #84]	; 0x54
8010029a:	2300      	movs	r3, #0
8010029c:	653b      	str	r3, [r7, #80]	; 0x50
8010029e:	6dbb      	ldr	r3, [r7, #88]	; 0x58
801002a0:	3b01      	subs	r3, #1
801002a2:	65bb      	str	r3, [r7, #88]	; 0x58
801002a4:	6dbb      	ldr	r3, [r7, #88]	; 0x58
801002a6:	2200      	movs	r2, #0
801002a8:	701a      	strb	r2, [r3, #0]
801002aa:	68fb      	ldr	r3, [r7, #12]
801002ac:	2b00      	cmp	r3, #0
801002ae:	da03      	bge.n	801002b8 <out_num+0x3e>
801002b0:	68fb      	ldr	r3, [r7, #12]
801002b2:	425b      	negs	r3, r3
801002b4:	65fb      	str	r3, [r7, #92]	; 0x5c
801002b6:	e001      	b.n	801002bc <out_num+0x42>
801002b8:	68fb      	ldr	r3, [r7, #12]
801002ba:	65fb      	str	r3, [r7, #92]	; 0x5c
801002bc:	6dbb      	ldr	r3, [r7, #88]	; 0x58
801002be:	3b01      	subs	r3, #1
801002c0:	65bb      	str	r3, [r7, #88]	; 0x58
801002c2:	68ba      	ldr	r2, [r7, #8]
801002c4:	6dfb      	ldr	r3, [r7, #92]	; 0x5c
801002c6:	4611      	mov	r1, r2
801002c8:	4618      	mov	r0, r3
801002ca:	f000 fed7 	bl	8010107c <__aeabi_uidivmod>
801002ce:	460b      	mov	r3, r1
801002d0:	461a      	mov	r2, r3
801002d2:	f241 2310 	movw	r3, #4624	; 0x1210
801002d6:	f2c8 0310 	movt	r3, #32784	; 0x8010
801002da:	5c9a      	ldrb	r2, [r3, r2]
801002dc:	6dbb      	ldr	r3, [r7, #88]	; 0x58
801002de:	701a      	strb	r2, [r3, #0]
801002e0:	6d7b      	ldr	r3, [r7, #84]	; 0x54
801002e2:	3301      	adds	r3, #1
801002e4:	657b      	str	r3, [r7, #84]	; 0x54
801002e6:	68bb      	ldr	r3, [r7, #8]
801002e8:	4619      	mov	r1, r3
801002ea:	6df8      	ldr	r0, [r7, #92]	; 0x5c
801002ec:	f000 fd98 	bl	80100e20 <__aeabi_uidiv>
801002f0:	4603      	mov	r3, r0
801002f2:	65fb      	str	r3, [r7, #92]	; 0x5c
801002f4:	6dfb      	ldr	r3, [r7, #92]	; 0x5c
801002f6:	2b00      	cmp	r3, #0
801002f8:	d1e0      	bne.n	801002bc <out_num+0x42>
801002fa:	683b      	ldr	r3, [r7, #0]
801002fc:	2b00      	cmp	r3, #0
801002fe:	d014      	beq.n	8010032a <out_num+0xb0>
80100300:	6d7a      	ldr	r2, [r7, #84]	; 0x54
80100302:	683b      	ldr	r3, [r7, #0]
80100304:	429a      	cmp	r2, r3
80100306:	da10      	bge.n	8010032a <out_num+0xb0>
80100308:	683a      	ldr	r2, [r7, #0]
8010030a:	6d7b      	ldr	r3, [r7, #84]	; 0x54
8010030c:	1ad3      	subs	r3, r2, r3
8010030e:	653b      	str	r3, [r7, #80]	; 0x50
80100310:	e008      	b.n	80100324 <out_num+0xaa>
80100312:	6dbb      	ldr	r3, [r7, #88]	; 0x58
80100314:	3b01      	subs	r3, #1
80100316:	65bb      	str	r3, [r7, #88]	; 0x58
80100318:	6dbb      	ldr	r3, [r7, #88]	; 0x58
8010031a:	79fa      	ldrb	r2, [r7, #7]
8010031c:	701a      	strb	r2, [r3, #0]
8010031e:	6d3b      	ldr	r3, [r7, #80]	; 0x50
80100320:	3b01      	subs	r3, #1
80100322:	653b      	str	r3, [r7, #80]	; 0x50
80100324:	6d3b      	ldr	r3, [r7, #80]	; 0x50
80100326:	2b00      	cmp	r3, #0
80100328:	d1f3      	bne.n	80100312 <out_num+0x98>
8010032a:	68fb      	ldr	r3, [r7, #12]
8010032c:	2b00      	cmp	r3, #0
8010032e:	da05      	bge.n	8010033c <out_num+0xc2>
80100330:	6dbb      	ldr	r3, [r7, #88]	; 0x58
80100332:	3b01      	subs	r3, #1
80100334:	65bb      	str	r3, [r7, #88]	; 0x58
80100336:	6dbb      	ldr	r3, [r7, #88]	; 0x58
80100338:	222d      	movs	r2, #45	; 0x2d
8010033a:	701a      	strb	r2, [r3, #0]
8010033c:	6db8      	ldr	r0, [r7, #88]	; 0x58
8010033e:	f7ff ff87 	bl	80100250 <outs>
80100342:	4603      	mov	r3, r0
80100344:	4618      	mov	r0, r3
80100346:	3760      	adds	r7, #96	; 0x60
80100348:	46bd      	mov	sp, r7
8010034a:	bd80      	pop	{r7, pc}

8010034c <my_vprintf>:
8010034c:	b580      	push	{r7, lr}
8010034e:	b084      	sub	sp, #16
80100350:	af00      	add	r7, sp, #0
80100352:	6078      	str	r0, [r7, #4]
80100354:	6039      	str	r1, [r7, #0]
80100356:	2320      	movs	r3, #32
80100358:	73fb      	strb	r3, [r7, #15]
8010035a:	2300      	movs	r3, #0
8010035c:	60bb      	str	r3, [r7, #8]
8010035e:	e0b5      	b.n	801004cc <my_vprintf+0x180>
80100360:	687b      	ldr	r3, [r7, #4]
80100362:	781b      	ldrb	r3, [r3, #0]
80100364:	2b25      	cmp	r3, #37	; 0x25
80100366:	d005      	beq.n	80100374 <my_vprintf+0x28>
80100368:	687b      	ldr	r3, [r7, #4]
8010036a:	781b      	ldrb	r3, [r3, #0]
8010036c:	4618      	mov	r0, r3
8010036e:	f7ff ff63 	bl	80100238 <outc>
80100372:	e0a8      	b.n	801004c6 <my_vprintf+0x17a>
80100374:	2320      	movs	r3, #32
80100376:	73fb      	strb	r3, [r7, #15]
80100378:	2300      	movs	r3, #0
8010037a:	60bb      	str	r3, [r7, #8]
8010037c:	687b      	ldr	r3, [r7, #4]
8010037e:	3301      	adds	r3, #1
80100380:	607b      	str	r3, [r7, #4]
80100382:	687b      	ldr	r3, [r7, #4]
80100384:	781b      	ldrb	r3, [r3, #0]
80100386:	2b30      	cmp	r3, #48	; 0x30
80100388:	d114      	bne.n	801003b4 <my_vprintf+0x68>
8010038a:	2330      	movs	r3, #48	; 0x30
8010038c:	73fb      	strb	r3, [r7, #15]
8010038e:	687b      	ldr	r3, [r7, #4]
80100390:	3301      	adds	r3, #1
80100392:	607b      	str	r3, [r7, #4]
80100394:	e00e      	b.n	801003b4 <my_vprintf+0x68>
80100396:	68ba      	ldr	r2, [r7, #8]
80100398:	4613      	mov	r3, r2
8010039a:	009b      	lsls	r3, r3, #2
8010039c:	4413      	add	r3, r2
8010039e:	005b      	lsls	r3, r3, #1
801003a0:	60bb      	str	r3, [r7, #8]
801003a2:	687b      	ldr	r3, [r7, #4]
801003a4:	781b      	ldrb	r3, [r3, #0]
801003a6:	3b30      	subs	r3, #48	; 0x30
801003a8:	68ba      	ldr	r2, [r7, #8]
801003aa:	4413      	add	r3, r2
801003ac:	60bb      	str	r3, [r7, #8]
801003ae:	687b      	ldr	r3, [r7, #4]
801003b0:	3301      	adds	r3, #1
801003b2:	607b      	str	r3, [r7, #4]
801003b4:	687b      	ldr	r3, [r7, #4]
801003b6:	781b      	ldrb	r3, [r3, #0]
801003b8:	2b2f      	cmp	r3, #47	; 0x2f
801003ba:	d903      	bls.n	801003c4 <my_vprintf+0x78>
801003bc:	687b      	ldr	r3, [r7, #4]
801003be:	781b      	ldrb	r3, [r3, #0]
801003c0:	2b39      	cmp	r3, #57	; 0x39
801003c2:	d9e8      	bls.n	80100396 <my_vprintf+0x4a>
801003c4:	687b      	ldr	r3, [r7, #4]
801003c6:	781b      	ldrb	r3, [r3, #0]
801003c8:	3b63      	subs	r3, #99	; 0x63
801003ca:	2b15      	cmp	r3, #21
801003cc:	d875      	bhi.n	801004ba <my_vprintf+0x16e>
801003ce:	a201      	add	r2, pc, #4	; (adr r2, 801003d4 <my_vprintf+0x88>)
801003d0:	f852 f023 	ldr.w	pc, [r2, r3, lsl #2]
801003d4:	80100493 	mulshi	r0, r3, r4
801003d8:	8010042d 	andshi	r0, r0, sp, lsr #8
801003dc:	801004bb 			; <UNDEFINED> instruction: 0x801004bb
801003e0:	801004bb 			; <UNDEFINED> instruction: 0x801004bb
801003e4:	801004bb 			; <UNDEFINED> instruction: 0x801004bb
801003e8:	801004bb 			; <UNDEFINED> instruction: 0x801004bb
801003ec:	801004bb 			; <UNDEFINED> instruction: 0x801004bb
801003f0:	801004bb 			; <UNDEFINED> instruction: 0x801004bb
801003f4:	801004bb 			; <UNDEFINED> instruction: 0x801004bb
801003f8:	801004bb 			; <UNDEFINED> instruction: 0x801004bb
801003fc:	801004bb 			; <UNDEFINED> instruction: 0x801004bb
80100400:	801004bb 			; <UNDEFINED> instruction: 0x801004bb
80100404:	80100445 	andshi	r0, r0, r5, asr #8
80100408:	801004bb 			; <UNDEFINED> instruction: 0x801004bb
8010040c:	801004bb 			; <UNDEFINED> instruction: 0x801004bb
80100410:	801004bb 			; <UNDEFINED> instruction: 0x801004bb
80100414:	801004a7 	andshi	r0, r0, r7, lsr #9
80100418:	801004bb 			; <UNDEFINED> instruction: 0x801004bb
8010041c:	8010045f 	andshi	r0, r0, pc, asr r4
80100420:	801004bb 			; <UNDEFINED> instruction: 0x801004bb
80100424:	801004bb 			; <UNDEFINED> instruction: 0x801004bb
80100428:	80100479 	andshi	r0, r0, r9, ror r4
8010042c:	683b      	ldr	r3, [r7, #0]
8010042e:	3304      	adds	r3, #4
80100430:	603b      	str	r3, [r7, #0]
80100432:	683b      	ldr	r3, [r7, #0]
80100434:	3b04      	subs	r3, #4
80100436:	6818      	ldr	r0, [r3, #0]
80100438:	7bfa      	ldrb	r2, [r7, #15]
8010043a:	68bb      	ldr	r3, [r7, #8]
8010043c:	210a      	movs	r1, #10
8010043e:	f7ff ff1c 	bl	8010027a <out_num>
80100442:	e040      	b.n	801004c6 <my_vprintf+0x17a>
80100444:	683b      	ldr	r3, [r7, #0]
80100446:	3304      	adds	r3, #4
80100448:	603b      	str	r3, [r7, #0]
8010044a:	683b      	ldr	r3, [r7, #0]
8010044c:	3b04      	subs	r3, #4
8010044e:	681b      	ldr	r3, [r3, #0]
80100450:	4618      	mov	r0, r3
80100452:	7bfa      	ldrb	r2, [r7, #15]
80100454:	68bb      	ldr	r3, [r7, #8]
80100456:	2108      	movs	r1, #8
80100458:	f7ff ff0f 	bl	8010027a <out_num>
8010045c:	e033      	b.n	801004c6 <my_vprintf+0x17a>
8010045e:	683b      	ldr	r3, [r7, #0]
80100460:	3304      	adds	r3, #4
80100462:	603b      	str	r3, [r7, #0]
80100464:	683b      	ldr	r3, [r7, #0]
80100466:	3b04      	subs	r3, #4
80100468:	681b      	ldr	r3, [r3, #0]
8010046a:	4618      	mov	r0, r3
8010046c:	7bfa      	ldrb	r2, [r7, #15]
8010046e:	68bb      	ldr	r3, [r7, #8]
80100470:	210a      	movs	r1, #10
80100472:	f7ff ff02 	bl	8010027a <out_num>
80100476:	e026      	b.n	801004c6 <my_vprintf+0x17a>
80100478:	683b      	ldr	r3, [r7, #0]
8010047a:	3304      	adds	r3, #4
8010047c:	603b      	str	r3, [r7, #0]
8010047e:	683b      	ldr	r3, [r7, #0]
80100480:	3b04      	subs	r3, #4
80100482:	681b      	ldr	r3, [r3, #0]
80100484:	4618      	mov	r0, r3
80100486:	7bfa      	ldrb	r2, [r7, #15]
80100488:	68bb      	ldr	r3, [r7, #8]
8010048a:	2110      	movs	r1, #16
8010048c:	f7ff fef5 	bl	8010027a <out_num>
80100490:	e019      	b.n	801004c6 <my_vprintf+0x17a>
80100492:	683b      	ldr	r3, [r7, #0]
80100494:	3304      	adds	r3, #4
80100496:	603b      	str	r3, [r7, #0]
80100498:	683b      	ldr	r3, [r7, #0]
8010049a:	3b04      	subs	r3, #4
8010049c:	681b      	ldr	r3, [r3, #0]
8010049e:	4618      	mov	r0, r3
801004a0:	f7ff feca 	bl	80100238 <outc>
801004a4:	e00f      	b.n	801004c6 <my_vprintf+0x17a>
801004a6:	683b      	ldr	r3, [r7, #0]
801004a8:	3304      	adds	r3, #4
801004aa:	603b      	str	r3, [r7, #0]
801004ac:	683b      	ldr	r3, [r7, #0]
801004ae:	3b04      	subs	r3, #4
801004b0:	681b      	ldr	r3, [r3, #0]
801004b2:	4618      	mov	r0, r3
801004b4:	f7ff fecc 	bl	80100250 <outs>
801004b8:	e005      	b.n	801004c6 <my_vprintf+0x17a>
801004ba:	687b      	ldr	r3, [r7, #4]
801004bc:	781b      	ldrb	r3, [r3, #0]
801004be:	4618      	mov	r0, r3
801004c0:	f7ff feba 	bl	80100238 <outc>
801004c4:	bf00      	nop
801004c6:	687b      	ldr	r3, [r7, #4]
801004c8:	3301      	adds	r3, #1
801004ca:	607b      	str	r3, [r7, #4]
801004cc:	687b      	ldr	r3, [r7, #4]
801004ce:	781b      	ldrb	r3, [r3, #0]
801004d0:	2b00      	cmp	r3, #0
801004d2:	f47f af45 	bne.w	80100360 <my_vprintf+0x14>
801004d6:	2300      	movs	r3, #0
801004d8:	4618      	mov	r0, r3
801004da:	3710      	adds	r7, #16
801004dc:	46bd      	mov	sp, r7
801004de:	bd80      	pop	{r7, pc}

801004e0 <printf>:
801004e0:	b40f      	push	{r0, r1, r2, r3}
801004e2:	b580      	push	{r7, lr}
801004e4:	b082      	sub	sp, #8
801004e6:	af00      	add	r7, sp, #0
801004e8:	f107 0314 	add.w	r3, r7, #20
801004ec:	607b      	str	r3, [r7, #4]
801004ee:	693b      	ldr	r3, [r7, #16]
801004f0:	6879      	ldr	r1, [r7, #4]
801004f2:	4618      	mov	r0, r3
801004f4:	f7ff ff2a 	bl	8010034c <my_vprintf>
801004f8:	2300      	movs	r3, #0
801004fa:	607b      	str	r3, [r7, #4]
801004fc:	2300      	movs	r3, #0
801004fe:	4618      	mov	r0, r3
80100500:	3708      	adds	r7, #8
80100502:	46bd      	mov	sp, r7
80100504:	e8bd 4080 	ldmia.w	sp!, {r7, lr}
80100508:	b004      	add	sp, #16
8010050a:	4770      	bx	lr

8010050c <my_printf_test>:
8010050c:	b580      	push	{r7, lr}
8010050e:	af00      	add	r7, sp, #0
80100510:	f241 00c8 	movw	r0, #4296	; 0x10c8
80100514:	f2c8 0010 	movt	r0, #32784	; 0x8010
80100518:	f7ff ffe2 	bl	801004e0 <printf>
8010051c:	2261      	movs	r2, #97	; 0x61
8010051e:	2141      	movs	r1, #65	; 0x41
80100520:	f241 00f4 	movw	r0, #4340	; 0x10f4
80100524:	f2c8 0010 	movt	r0, #32784	; 0x8010
80100528:	f7ff ffda 	bl	801004e0 <printf>
8010052c:	f24e 2140 	movw	r1, #57920	; 0xe240
80100530:	f2c0 0101 	movt	r1, #1
80100534:	f241 1014 	movw	r0, #4372	; 0x1114
80100538:	f2c8 0010 	movt	r0, #32784	; 0x8010
8010053c:	f7ff ffd0 	bl	801004e0 <printf>
80100540:	f44f 51ee 	mov.w	r1, #7616	; 0x1dc0
80100544:	f6cf 71fe 	movt	r1, #65534	; 0xfffe
80100548:	f241 1014 	movw	r0, #4372	; 0x1114
8010054c:	f2c8 0010 	movt	r0, #32784	; 0x8010
80100550:	f7ff ffc6 	bl	801004e0 <printf>
80100554:	f245 51aa 	movw	r1, #21930	; 0x55aa
80100558:	f2c5 51aa 	movt	r1, #21930	; 0x55aa
8010055c:	f241 1030 	movw	r0, #4400	; 0x1130
80100560:	f2c8 0010 	movt	r0, #32784	; 0x8010
80100564:	f7ff ffbc 	bl	801004e0 <printf>
80100568:	f241 114c 	movw	r1, #4428	; 0x114c
8010056c:	f2c8 0110 	movt	r1, #32784	; 0x8010
80100570:	f241 105c 	movw	r0, #4444	; 0x115c
80100574:	f2c8 0010 	movt	r0, #32784	; 0x8010
80100578:	f7ff ffb2 	bl	801004e0 <printf>
8010057c:	f243 0139 	movw	r1, #12345	; 0x3039
80100580:	f241 1078 	movw	r0, #4472	; 0x1178
80100584:	f2c8 0010 	movt	r0, #32784	; 0x8010
80100588:	f7ff ffaa 	bl	801004e0 <printf>
8010058c:	f243 0139 	movw	r1, #12345	; 0x3039
80100590:	f241 1084 	movw	r0, #4484	; 0x1184
80100594:	f2c8 0010 	movt	r0, #32784	; 0x8010
80100598:	f7ff ffa2 	bl	801004e0 <printf>
8010059c:	f242 3145 	movw	r1, #9029	; 0x2345
801005a0:	f2c0 0101 	movt	r1, #1
801005a4:	f241 1090 	movw	r0, #4496	; 0x1190
801005a8:	f2c8 0010 	movt	r0, #32784	; 0x8010
801005ac:	f7ff ff98 	bl	801004e0 <printf>
801005b0:	f242 3145 	movw	r1, #9029	; 0x2345
801005b4:	f2c0 0101 	movt	r1, #1
801005b8:	f241 10a0 	movw	r0, #4512	; 0x11a0
801005bc:	f2c8 0010 	movt	r0, #32784	; 0x8010
801005c0:	f7ff ff8e 	bl	801004e0 <printf>
801005c4:	2101      	movs	r1, #1
801005c6:	f241 10ac 	movw	r0, #4524	; 0x11ac
801005ca:	f2c8 0010 	movt	r0, #32784	; 0x8010
801005ce:	f7ff ff87 	bl	801004e0 <printf>
801005d2:	2101      	movs	r1, #1
801005d4:	f241 10bc 	movw	r0, #4540	; 0x11bc
801005d8:	f2c8 0010 	movt	r0, #32784	; 0x8010
801005dc:	f7ff ff80 	bl	801004e0 <printf>
801005e0:	2101      	movs	r1, #1
801005e2:	f241 10c8 	movw	r0, #4552	; 0x11c8
801005e6:	f2c8 0010 	movt	r0, #32784	; 0x8010
801005ea:	f7ff ff79 	bl	801004e0 <printf>
801005ee:	2101      	movs	r1, #1
801005f0:	f241 10d4 	movw	r0, #4564	; 0x11d4
801005f4:	f2c8 0010 	movt	r0, #32784	; 0x8010
801005f8:	f7ff ff72 	bl	801004e0 <printf>
801005fc:	2300      	movs	r3, #0
801005fe:	4618      	mov	r0, r3
80100600:	bd80      	pop	{r7, pc}
80100602:	bf00      	nop

80100604 <Emmc_PinConfig>:
80100604:	b480      	push	{r7}
80100606:	af00      	add	r7, sp, #0
80100608:	f241 222c 	movw	r2, #4652	; 0x122c
8010060c:	f2c8 0210 	movt	r2, #32784	; 0x8010
80100610:	f44f 73bc 	mov.w	r3, #376	; 0x178
80100614:	f2c0 230e 	movt	r3, #526	; 0x20e
80100618:	6013      	str	r3, [r2, #0]
8010061a:	f241 2230 	movw	r2, #4656	; 0x1230
8010061e:	f2c8 0210 	movt	r2, #32784	; 0x8010
80100622:	f44f 73be 	mov.w	r3, #380	; 0x17c
80100626:	f2c0 230e 	movt	r3, #526	; 0x20e
8010062a:	6013      	str	r3, [r2, #0]
8010062c:	f241 2234 	movw	r2, #4660	; 0x1234
80100630:	f2c8 0210 	movt	r2, #32784	; 0x8010
80100634:	f44f 73c0 	mov.w	r3, #384	; 0x180
80100638:	f2c0 230e 	movt	r3, #526	; 0x20e
8010063c:	6013      	str	r3, [r2, #0]
8010063e:	f241 2238 	movw	r2, #4664	; 0x1238
80100642:	f2c8 0210 	movt	r2, #32784	; 0x8010
80100646:	f44f 73c2 	mov.w	r3, #388	; 0x184
8010064a:	f2c0 230e 	movt	r3, #526	; 0x20e
8010064e:	6013      	str	r3, [r2, #0]
80100650:	f241 223c 	movw	r2, #4668	; 0x123c
80100654:	f2c8 0210 	movt	r2, #32784	; 0x8010
80100658:	f44f 73c4 	mov.w	r3, #392	; 0x188
8010065c:	f2c0 230e 	movt	r3, #526	; 0x20e
80100660:	6013      	str	r3, [r2, #0]
80100662:	f241 2240 	movw	r2, #4672	; 0x1240
80100666:	f2c8 0210 	movt	r2, #32784	; 0x8010
8010066a:	f44f 73c6 	mov.w	r3, #396	; 0x18c
8010066e:	f2c0 230e 	movt	r3, #526	; 0x20e
80100672:	6013      	str	r3, [r2, #0]
80100674:	f241 2244 	movw	r2, #4676	; 0x1244
80100678:	f2c8 0210 	movt	r2, #32784	; 0x8010
8010067c:	f44f 73c8 	mov.w	r3, #400	; 0x190
80100680:	f2c0 230e 	movt	r3, #526	; 0x20e
80100684:	6013      	str	r3, [r2, #0]
80100686:	f241 2248 	movw	r2, #4680	; 0x1248
8010068a:	f2c8 0210 	movt	r2, #32784	; 0x8010
8010068e:	f44f 73ca 	mov.w	r3, #404	; 0x194
80100692:	f2c0 230e 	movt	r3, #526	; 0x20e
80100696:	6013      	str	r3, [r2, #0]
80100698:	f241 224c 	movw	r2, #4684	; 0x124c
8010069c:	f2c8 0210 	movt	r2, #32784	; 0x8010
801006a0:	f44f 73cc 	mov.w	r3, #408	; 0x198
801006a4:	f2c0 230e 	movt	r3, #526	; 0x20e
801006a8:	6013      	str	r3, [r2, #0]
801006aa:	f241 2250 	movw	r2, #4688	; 0x1250
801006ae:	f2c8 0210 	movt	r2, #32784	; 0x8010
801006b2:	f44f 73ce 	mov.w	r3, #412	; 0x19c
801006b6:	f2c0 230e 	movt	r3, #526	; 0x20e
801006ba:	6013      	str	r3, [r2, #0]
801006bc:	f241 2254 	movw	r2, #4692	; 0x1254
801006c0:	f2c8 0210 	movt	r2, #32784	; 0x8010
801006c4:	f44f 73d0 	mov.w	r3, #416	; 0x1a0
801006c8:	f2c0 230e 	movt	r3, #526	; 0x20e
801006cc:	6013      	str	r3, [r2, #0]
801006ce:	f241 232c 	movw	r3, #4652	; 0x122c
801006d2:	f2c8 0310 	movt	r3, #32784	; 0x8010
801006d6:	681b      	ldr	r3, [r3, #0]
801006d8:	2201      	movs	r2, #1
801006da:	601a      	str	r2, [r3, #0]
801006dc:	f241 2330 	movw	r3, #4656	; 0x1230
801006e0:	f2c8 0310 	movt	r3, #32784	; 0x8010
801006e4:	681b      	ldr	r3, [r3, #0]
801006e6:	2201      	movs	r2, #1
801006e8:	601a      	str	r2, [r3, #0]
801006ea:	f241 2334 	movw	r3, #4660	; 0x1234
801006ee:	f2c8 0310 	movt	r3, #32784	; 0x8010
801006f2:	681b      	ldr	r3, [r3, #0]
801006f4:	2201      	movs	r2, #1
801006f6:	601a      	str	r2, [r3, #0]
801006f8:	f241 2338 	movw	r3, #4664	; 0x1238
801006fc:	f2c8 0310 	movt	r3, #32784	; 0x8010
80100700:	681b      	ldr	r3, [r3, #0]
80100702:	2201      	movs	r2, #1
80100704:	601a      	str	r2, [r3, #0]
80100706:	f241 233c 	movw	r3, #4668	; 0x123c
8010070a:	f2c8 0310 	movt	r3, #32784	; 0x8010
8010070e:	681b      	ldr	r3, [r3, #0]
80100710:	2201      	movs	r2, #1
80100712:	601a      	str	r2, [r3, #0]
80100714:	f241 2340 	movw	r3, #4672	; 0x1240
80100718:	f2c8 0310 	movt	r3, #32784	; 0x8010
8010071c:	681b      	ldr	r3, [r3, #0]
8010071e:	2201      	movs	r2, #1
80100720:	601a      	str	r2, [r3, #0]
80100722:	f241 2344 	movw	r3, #4676	; 0x1244
80100726:	f2c8 0310 	movt	r3, #32784	; 0x8010
8010072a:	681b      	ldr	r3, [r3, #0]
8010072c:	2201      	movs	r2, #1
8010072e:	601a      	str	r2, [r3, #0]
80100730:	f241 2348 	movw	r3, #4680	; 0x1248
80100734:	f2c8 0310 	movt	r3, #32784	; 0x8010
80100738:	681b      	ldr	r3, [r3, #0]
8010073a:	2201      	movs	r2, #1
8010073c:	601a      	str	r2, [r3, #0]
8010073e:	f241 234c 	movw	r3, #4684	; 0x124c
80100742:	f2c8 0310 	movt	r3, #32784	; 0x8010
80100746:	681b      	ldr	r3, [r3, #0]
80100748:	2201      	movs	r2, #1
8010074a:	601a      	str	r2, [r3, #0]
8010074c:	f241 2350 	movw	r3, #4688	; 0x1250
80100750:	f2c8 0310 	movt	r3, #32784	; 0x8010
80100754:	681b      	ldr	r3, [r3, #0]
80100756:	2201      	movs	r2, #1
80100758:	601a      	str	r2, [r3, #0]
8010075a:	f241 2354 	movw	r3, #4692	; 0x1254
8010075e:	f2c8 0310 	movt	r3, #32784	; 0x8010
80100762:	681b      	ldr	r3, [r3, #0]
80100764:	2205      	movs	r2, #5
80100766:	601a      	str	r2, [r3, #0]
80100768:	f241 2258 	movw	r2, #4696	; 0x1258
8010076c:	f2c8 0210 	movt	r2, #32784	; 0x8010
80100770:	f44f 63ce 	mov.w	r3, #1648	; 0x670
80100774:	f2c0 230e 	movt	r3, #526	; 0x20e
80100778:	6013      	str	r3, [r2, #0]
8010077a:	f241 225c 	movw	r2, #4700	; 0x125c
8010077e:	f2c8 0210 	movt	r2, #32784	; 0x8010
80100782:	f44f 63cf 	mov.w	r3, #1656	; 0x678
80100786:	f2c0 230e 	movt	r3, #526	; 0x20e
8010078a:	6013      	str	r3, [r2, #0]
8010078c:	f241 2260 	movw	r2, #4704	; 0x1260
80100790:	f2c8 0210 	movt	r2, #32784	; 0x8010
80100794:	f240 637c 	movw	r3, #1660	; 0x67c
80100798:	f2c0 230e 	movt	r3, #526	; 0x20e
8010079c:	6013      	str	r3, [r2, #0]
8010079e:	f241 2264 	movw	r2, #4708	; 0x1264
801007a2:	f2c8 0210 	movt	r2, #32784	; 0x8010
801007a6:	f44f 63d0 	mov.w	r3, #1664	; 0x680
801007aa:	f2c0 230e 	movt	r3, #526	; 0x20e
801007ae:	6013      	str	r3, [r2, #0]
801007b0:	f241 2268 	movw	r2, #4712	; 0x1268
801007b4:	f2c8 0210 	movt	r2, #32784	; 0x8010
801007b8:	f240 6384 	movw	r3, #1668	; 0x684
801007bc:	f2c0 230e 	movt	r3, #526	; 0x20e
801007c0:	6013      	str	r3, [r2, #0]
801007c2:	f241 226c 	movw	r2, #4716	; 0x126c
801007c6:	f2c8 0210 	movt	r2, #32784	; 0x8010
801007ca:	f44f 63d1 	mov.w	r3, #1672	; 0x688
801007ce:	f2c0 230e 	movt	r3, #526	; 0x20e
801007d2:	6013      	str	r3, [r2, #0]
801007d4:	f241 2270 	movw	r2, #4720	; 0x1270
801007d8:	f2c8 0210 	movt	r2, #32784	; 0x8010
801007dc:	f240 638c 	movw	r3, #1676	; 0x68c
801007e0:	f2c0 230e 	movt	r3, #526	; 0x20e
801007e4:	6013      	str	r3, [r2, #0]
801007e6:	f241 2274 	movw	r2, #4724	; 0x1274
801007ea:	f2c8 0210 	movt	r2, #32784	; 0x8010
801007ee:	f44f 63d2 	mov.w	r3, #1680	; 0x690
801007f2:	f2c0 230e 	movt	r3, #526	; 0x20e
801007f6:	6013      	str	r3, [r2, #0]
801007f8:	f241 2278 	movw	r2, #4728	; 0x1278
801007fc:	f2c8 0210 	movt	r2, #32784	; 0x8010
80100800:	f240 6394 	movw	r3, #1684	; 0x694
80100804:	f2c0 230e 	movt	r3, #526	; 0x20e
80100808:	6013      	str	r3, [r2, #0]
8010080a:	f241 227c 	movw	r2, #4732	; 0x127c
8010080e:	f2c8 0210 	movt	r2, #32784	; 0x8010
80100812:	f44f 63d3 	mov.w	r3, #1688	; 0x698
80100816:	f2c0 230e 	movt	r3, #526	; 0x20e
8010081a:	6013      	str	r3, [r2, #0]
8010081c:	f241 2358 	movw	r3, #4696	; 0x1258
80100820:	f2c8 0310 	movt	r3, #32784	; 0x8010
80100824:	681b      	ldr	r3, [r3, #0]
80100826:	2202      	movs	r2, #2
80100828:	601a      	str	r2, [r3, #0]
8010082a:	f241 235c 	movw	r3, #4700	; 0x125c
8010082e:	f2c8 0310 	movt	r3, #32784	; 0x8010
80100832:	681b      	ldr	r3, [r3, #0]
80100834:	2202      	movs	r2, #2
80100836:	601a      	str	r2, [r3, #0]
80100838:	f241 2360 	movw	r3, #4704	; 0x1260
8010083c:	f2c8 0310 	movt	r3, #32784	; 0x8010
80100840:	681b      	ldr	r3, [r3, #0]
80100842:	2202      	movs	r2, #2
80100844:	601a      	str	r2, [r3, #0]
80100846:	f241 2364 	movw	r3, #4708	; 0x1264
8010084a:	f2c8 0310 	movt	r3, #32784	; 0x8010
8010084e:	681b      	ldr	r3, [r3, #0]
80100850:	2202      	movs	r2, #2
80100852:	601a      	str	r2, [r3, #0]
80100854:	f241 2368 	movw	r3, #4712	; 0x1268
80100858:	f2c8 0310 	movt	r3, #32784	; 0x8010
8010085c:	681b      	ldr	r3, [r3, #0]
8010085e:	2201      	movs	r2, #1
80100860:	601a      	str	r2, [r3, #0]
80100862:	f241 236c 	movw	r3, #4716	; 0x126c
80100866:	f2c8 0310 	movt	r3, #32784	; 0x8010
8010086a:	681b      	ldr	r3, [r3, #0]
8010086c:	2202      	movs	r2, #2
8010086e:	601a      	str	r2, [r3, #0]
80100870:	f241 2370 	movw	r3, #4720	; 0x1270
80100874:	f2c8 0310 	movt	r3, #32784	; 0x8010
80100878:	681b      	ldr	r3, [r3, #0]
8010087a:	2201      	movs	r2, #1
8010087c:	601a      	str	r2, [r3, #0]
8010087e:	f241 2374 	movw	r3, #4724	; 0x1274
80100882:	f2c8 0310 	movt	r3, #32784	; 0x8010
80100886:	681b      	ldr	r3, [r3, #0]
80100888:	2201      	movs	r2, #1
8010088a:	601a      	str	r2, [r3, #0]
8010088c:	f241 2378 	movw	r3, #4728	; 0x1278
80100890:	f2c8 0310 	movt	r3, #32784	; 0x8010
80100894:	681b      	ldr	r3, [r3, #0]
80100896:	2201      	movs	r2, #1
80100898:	601a      	str	r2, [r3, #0]
8010089a:	f241 237c 	movw	r3, #4732	; 0x127c
8010089e:	f2c8 0310 	movt	r3, #32784	; 0x8010
801008a2:	681b      	ldr	r3, [r3, #0]
801008a4:	2201      	movs	r2, #1
801008a6:	601a      	str	r2, [r3, #0]
801008a8:	f241 2280 	movw	r2, #4736	; 0x1280
801008ac:	f2c8 0210 	movt	r2, #32784	; 0x8010
801008b0:	f240 4304 	movw	r3, #1028	; 0x404
801008b4:	f2c0 230e 	movt	r3, #526	; 0x20e
801008b8:	6013      	str	r3, [r2, #0]
801008ba:	f241 2284 	movw	r2, #4740	; 0x1284
801008be:	f2c8 0210 	movt	r2, #32784	; 0x8010
801008c2:	f44f 6381 	mov.w	r3, #1032	; 0x408
801008c6:	f2c0 230e 	movt	r3, #526	; 0x20e
801008ca:	6013      	str	r3, [r2, #0]
801008cc:	f241 2288 	movw	r2, #4744	; 0x1288
801008d0:	f2c8 0210 	movt	r2, #32784	; 0x8010
801008d4:	f240 430c 	movw	r3, #1036	; 0x40c
801008d8:	f2c0 230e 	movt	r3, #526	; 0x20e
801008dc:	6013      	str	r3, [r2, #0]
801008de:	f241 228c 	movw	r2, #4748	; 0x128c
801008e2:	f2c8 0210 	movt	r2, #32784	; 0x8010
801008e6:	f44f 6382 	mov.w	r3, #1040	; 0x410
801008ea:	f2c0 230e 	movt	r3, #526	; 0x20e
801008ee:	6013      	str	r3, [r2, #0]
801008f0:	f241 2290 	movw	r2, #4752	; 0x1290
801008f4:	f2c8 0210 	movt	r2, #32784	; 0x8010
801008f8:	f240 4314 	movw	r3, #1044	; 0x414
801008fc:	f2c0 230e 	movt	r3, #526	; 0x20e
80100900:	6013      	str	r3, [r2, #0]
80100902:	f241 2294 	movw	r2, #4756	; 0x1294
80100906:	f2c8 0210 	movt	r2, #32784	; 0x8010
8010090a:	f44f 6383 	mov.w	r3, #1048	; 0x418
8010090e:	f2c0 230e 	movt	r3, #526	; 0x20e
80100912:	6013      	str	r3, [r2, #0]
80100914:	f241 2298 	movw	r2, #4760	; 0x1298
80100918:	f2c8 0210 	movt	r2, #32784	; 0x8010
8010091c:	f240 431c 	movw	r3, #1052	; 0x41c
80100920:	f2c0 230e 	movt	r3, #526	; 0x20e
80100924:	6013      	str	r3, [r2, #0]
80100926:	f241 229c 	movw	r2, #4764	; 0x129c
8010092a:	f2c8 0210 	movt	r2, #32784	; 0x8010
8010092e:	f44f 6384 	mov.w	r3, #1056	; 0x420
80100932:	f2c0 230e 	movt	r3, #526	; 0x20e
80100936:	6013      	str	r3, [r2, #0]
80100938:	f241 22a0 	movw	r2, #4768	; 0x12a0
8010093c:	f2c8 0210 	movt	r2, #32784	; 0x8010
80100940:	f240 4324 	movw	r3, #1060	; 0x424
80100944:	f2c0 230e 	movt	r3, #526	; 0x20e
80100948:	6013      	str	r3, [r2, #0]
8010094a:	f241 22a4 	movw	r2, #4772	; 0x12a4
8010094e:	f2c8 0210 	movt	r2, #32784	; 0x8010
80100952:	f44f 6385 	mov.w	r3, #1064	; 0x428
80100956:	f2c0 230e 	movt	r3, #526	; 0x20e
8010095a:	6013      	str	r3, [r2, #0]
8010095c:	f241 2380 	movw	r3, #4736	; 0x1280
80100960:	f2c8 0310 	movt	r3, #32784	; 0x8010
80100964:	681a      	ldr	r2, [r3, #0]
80100966:	f247 0359 	movw	r3, #28761	; 0x7059
8010096a:	f2c0 0301 	movt	r3, #1
8010096e:	6013      	str	r3, [r2, #0]
80100970:	f241 2384 	movw	r3, #4740	; 0x1284
80100974:	f2c8 0310 	movt	r3, #32784	; 0x8010
80100978:	681a      	ldr	r2, [r3, #0]
8010097a:	f247 0359 	movw	r3, #28761	; 0x7059
8010097e:	f2c0 0301 	movt	r3, #1
80100982:	6013      	str	r3, [r2, #0]
80100984:	f241 2388 	movw	r3, #4744	; 0x1288
80100988:	f2c8 0310 	movt	r3, #32784	; 0x8010
8010098c:	681a      	ldr	r2, [r3, #0]
8010098e:	f247 0359 	movw	r3, #28761	; 0x7059
80100992:	f2c0 0301 	movt	r3, #1
80100996:	6013      	str	r3, [r2, #0]
80100998:	f241 238c 	movw	r3, #4748	; 0x128c
8010099c:	f2c8 0310 	movt	r3, #32784	; 0x8010
801009a0:	681a      	ldr	r2, [r3, #0]
801009a2:	f247 0359 	movw	r3, #28761	; 0x7059
801009a6:	f2c0 0301 	movt	r3, #1
801009aa:	6013      	str	r3, [r2, #0]
801009ac:	f241 2390 	movw	r3, #4752	; 0x1290
801009b0:	f2c8 0310 	movt	r3, #32784	; 0x8010
801009b4:	681a      	ldr	r2, [r3, #0]
801009b6:	f247 0359 	movw	r3, #28761	; 0x7059
801009ba:	f2c0 0301 	movt	r3, #1
801009be:	6013      	str	r3, [r2, #0]
801009c0:	f241 2394 	movw	r3, #4756	; 0x1294
801009c4:	f2c8 0310 	movt	r3, #32784	; 0x8010
801009c8:	681a      	ldr	r2, [r3, #0]
801009ca:	f247 0359 	movw	r3, #28761	; 0x7059
801009ce:	f2c0 0301 	movt	r3, #1
801009d2:	6013      	str	r3, [r2, #0]
801009d4:	f241 2398 	movw	r3, #4760	; 0x1298
801009d8:	f2c8 0310 	movt	r3, #32784	; 0x8010
801009dc:	681a      	ldr	r2, [r3, #0]
801009de:	f247 0359 	movw	r3, #28761	; 0x7059
801009e2:	f2c0 0301 	movt	r3, #1
801009e6:	6013      	str	r3, [r2, #0]
801009e8:	f241 239c 	movw	r3, #4764	; 0x129c
801009ec:	f2c8 0310 	movt	r3, #32784	; 0x8010
801009f0:	681a      	ldr	r2, [r3, #0]
801009f2:	f247 0359 	movw	r3, #28761	; 0x7059
801009f6:	f2c0 0301 	movt	r3, #1
801009fa:	6013      	str	r3, [r2, #0]
801009fc:	f241 23a0 	movw	r3, #4768	; 0x12a0
80100a00:	f2c8 0310 	movt	r3, #32784	; 0x8010
80100a04:	681a      	ldr	r2, [r3, #0]
80100a06:	f247 0359 	movw	r3, #28761	; 0x7059
80100a0a:	f2c0 0301 	movt	r3, #1
80100a0e:	6013      	str	r3, [r2, #0]
80100a10:	f241 23a4 	movw	r3, #4772	; 0x12a4
80100a14:	f2c8 0310 	movt	r3, #32784	; 0x8010
80100a18:	681a      	ldr	r2, [r3, #0]
80100a1a:	f247 0359 	movw	r3, #28761	; 0x7059
80100a1e:	f2c0 0301 	movt	r3, #1
80100a22:	6013      	str	r3, [r2, #0]
80100a24:	bf00      	nop
80100a26:	46bd      	mov	sp, r7
80100a28:	f85d 7b04 	ldr.w	r7, [sp], #4
80100a2c:	4770      	bx	lr

80100a2e <USDHC_Init>:
80100a2e:	b580      	push	{r7, lr}
80100a30:	af00      	add	r7, sp, #0
80100a32:	f241 22a8 	movw	r2, #4776	; 0x12a8
80100a36:	f2c8 0210 	movt	r2, #32784	; 0x8010
80100a3a:	f44f 4381 	mov.w	r3, #16512	; 0x4080
80100a3e:	f2c0 230c 	movt	r3, #524	; 0x20c
80100a42:	6013      	str	r3, [r2, #0]
80100a44:	f7ff fdde 	bl	80100604 <Emmc_PinConfig>
80100a48:	f241 23a8 	movw	r3, #4776	; 0x12a8
80100a4c:	f2c8 0310 	movt	r3, #32784	; 0x8010
80100a50:	681a      	ldr	r2, [r3, #0]
80100a52:	f241 23a8 	movw	r3, #4776	; 0x12a8
80100a56:	f2c8 0310 	movt	r3, #32784	; 0x8010
80100a5a:	681b      	ldr	r3, [r3, #0]
80100a5c:	681b      	ldr	r3, [r3, #0]
80100a5e:	f043 0330 	orr.w	r3, r3, #48	; 0x30
80100a62:	6013      	str	r3, [r2, #0]
80100a64:	2164      	movs	r1, #100	; 0x64
80100a66:	f04f 7080 	mov.w	r0, #16777216	; 0x1000000
80100a6a:	f000 f8bb 	bl	80100be4 <USDHC_Reset>
80100a6e:	4603      	mov	r3, r0
80100a70:	2b01      	cmp	r3, #1
80100a72:	f040 80a5 	bne.w	80100bc0 <USDHC_Init+0x192>
80100a76:	f241 10e0 	movw	r0, #4576	; 0x11e0
80100a7a:	f2c8 0010 	movt	r0, #32784	; 0x8010
80100a7e:	f7ff fd2f 	bl	801004e0 <printf>
80100a82:	f241 2320 	movw	r3, #4640	; 0x1220
80100a86:	f2c8 0310 	movt	r3, #32784	; 0x8010
80100a8a:	681a      	ldr	r2, [r3, #0]
80100a8c:	f241 2320 	movw	r3, #4640	; 0x1220
80100a90:	f2c8 0310 	movt	r3, #32784	; 0x8010
80100a94:	681b      	ldr	r3, [r3, #0]
80100a96:	6a9b      	ldr	r3, [r3, #40]	; 0x28
80100a98:	f423 734c 	bic.w	r3, r3, #816	; 0x330
80100a9c:	6293      	str	r3, [r2, #40]	; 0x28
80100a9e:	f241 2320 	movw	r3, #4640	; 0x1220
80100aa2:	f2c8 0310 	movt	r3, #32784	; 0x8010
80100aa6:	681a      	ldr	r2, [r3, #0]
80100aa8:	f241 2320 	movw	r3, #4640	; 0x1220
80100aac:	f2c8 0310 	movt	r3, #32784	; 0x8010
80100ab0:	681b      	ldr	r3, [r3, #0]
80100ab2:	6a9b      	ldr	r3, [r3, #40]	; 0x28
80100ab4:	f043 0320 	orr.w	r3, r3, #32
80100ab8:	6293      	str	r3, [r2, #40]	; 0x28
80100aba:	f241 2320 	movw	r3, #4640	; 0x1220
80100abe:	f2c8 0310 	movt	r3, #32784	; 0x8010
80100ac2:	681a      	ldr	r2, [r3, #0]
80100ac4:	f241 2320 	movw	r3, #4640	; 0x1220
80100ac8:	f2c8 0310 	movt	r3, #32784	; 0x8010
80100acc:	681b      	ldr	r3, [r3, #0]
80100ace:	6c5b      	ldr	r3, [r3, #68]	; 0x44
80100ad0:	f003 23e0 	and.w	r3, r3, #3758153728	; 0xe000e000
80100ad4:	6453      	str	r3, [r2, #68]	; 0x44
80100ad6:	f241 2320 	movw	r3, #4640	; 0x1220
80100ada:	f2c8 0310 	movt	r3, #32784	; 0x8010
80100ade:	681a      	ldr	r2, [r3, #0]
80100ae0:	f241 2320 	movw	r3, #4640	; 0x1220
80100ae4:	f2c8 0310 	movt	r3, #32784	; 0x8010
80100ae8:	681b      	ldr	r3, [r3, #0]
80100aea:	6c5b      	ldr	r3, [r3, #68]	; 0x44
80100aec:	f043 6308 	orr.w	r3, r3, #142606336	; 0x8800000
80100af0:	f443 6308 	orr.w	r3, r3, #2176	; 0x880
80100af4:	6453      	str	r3, [r2, #68]	; 0x44
80100af6:	f241 2320 	movw	r3, #4640	; 0x1220
80100afa:	f2c8 0310 	movt	r3, #32784	; 0x8010
80100afe:	681a      	ldr	r2, [r3, #0]
80100b00:	f241 2320 	movw	r3, #4640	; 0x1220
80100b04:	f2c8 0310 	movt	r3, #32784	; 0x8010
80100b08:	681b      	ldr	r3, [r3, #0]
80100b0a:	6adb      	ldr	r3, [r3, #44]	; 0x2c
80100b0c:	f423 2370 	bic.w	r3, r3, #983040	; 0xf0000
80100b10:	62d3      	str	r3, [r2, #44]	; 0x2c
80100b12:	f241 2320 	movw	r3, #4640	; 0x1220
80100b16:	f2c8 0310 	movt	r3, #32784	; 0x8010
80100b1a:	681a      	ldr	r2, [r3, #0]
80100b1c:	f241 2320 	movw	r3, #4640	; 0x1220
80100b20:	f2c8 0310 	movt	r3, #32784	; 0x8010
80100b24:	681b      	ldr	r3, [r3, #0]
80100b26:	6adb      	ldr	r3, [r3, #44]	; 0x2c
80100b28:	f443 2370 	orr.w	r3, r3, #983040	; 0xf0000
80100b2c:	62d3      	str	r3, [r2, #44]	; 0x2c
80100b2e:	f241 2320 	movw	r3, #4640	; 0x1220
80100b32:	f2c8 0310 	movt	r3, #32784	; 0x8010
80100b36:	681a      	ldr	r2, [r3, #0]
80100b38:	f241 2320 	movw	r3, #4640	; 0x1220
80100b3c:	f2c8 0310 	movt	r3, #32784	; 0x8010
80100b40:	681b      	ldr	r3, [r3, #0]
80100b42:	6c9b      	ldr	r3, [r3, #72]	; 0x48
80100b44:	f023 0301 	bic.w	r3, r3, #1
80100b48:	6493      	str	r3, [r2, #72]	; 0x48
80100b4a:	f241 2320 	movw	r3, #4640	; 0x1220
80100b4e:	f2c8 0310 	movt	r3, #32784	; 0x8010
80100b52:	681a      	ldr	r2, [r3, #0]
80100b54:	f241 2320 	movw	r3, #4640	; 0x1220
80100b58:	f2c8 0310 	movt	r3, #32784	; 0x8010
80100b5c:	681b      	ldr	r3, [r3, #0]
80100b5e:	6b5b      	ldr	r3, [r3, #52]	; 0x34
80100b60:	f043 0323 	orr.w	r3, r3, #35	; 0x23
80100b64:	6353      	str	r3, [r2, #52]	; 0x34
80100b66:	f241 2320 	movw	r3, #4640	; 0x1220
80100b6a:	f2c8 0310 	movt	r3, #32784	; 0x8010
80100b6e:	681a      	ldr	r2, [r3, #0]
80100b70:	f241 2320 	movw	r3, #4640	; 0x1220
80100b74:	f2c8 0310 	movt	r3, #32784	; 0x8010
80100b78:	681b      	ldr	r3, [r3, #0]
80100b7a:	6a9b      	ldr	r3, [r3, #40]	; 0x28
80100b7c:	6293      	str	r3, [r2, #40]	; 0x28
80100b7e:	f241 2320 	movw	r3, #4640	; 0x1220
80100b82:	f2c8 0310 	movt	r3, #32784	; 0x8010
80100b86:	681a      	ldr	r2, [r3, #0]
80100b88:	f241 2320 	movw	r3, #4640	; 0x1220
80100b8c:	f2c8 0310 	movt	r3, #32784	; 0x8010
80100b90:	681b      	ldr	r3, [r3, #0]
80100b92:	6adb      	ldr	r3, [r3, #44]	; 0x2c
80100b94:	f423 437f 	bic.w	r3, r3, #65280	; 0xff00
80100b98:	f023 03f0 	bic.w	r3, r3, #240	; 0xf0
80100b9c:	62d3      	str	r3, [r2, #44]	; 0x2c
80100b9e:	f241 2320 	movw	r3, #4640	; 0x1220
80100ba2:	f2c8 0310 	movt	r3, #32784	; 0x8010
80100ba6:	681a      	ldr	r2, [r3, #0]
80100ba8:	f241 2320 	movw	r3, #4640	; 0x1220
80100bac:	f2c8 0310 	movt	r3, #32784	; 0x8010
80100bb0:	681b      	ldr	r3, [r3, #0]
80100bb2:	6adb      	ldr	r3, [r3, #44]	; 0x2c
80100bb4:	f443 4380 	orr.w	r3, r3, #16384	; 0x4000
80100bb8:	f043 0330 	orr.w	r3, r3, #48	; 0x30
80100bbc:	62d3      	str	r3, [r2, #44]	; 0x2c
80100bbe:	e006      	b.n	80100bce <USDHC_Init+0x1a0>
80100bc0:	f241 10f0 	movw	r0, #4592	; 0x11f0
80100bc4:	f2c8 0010 	movt	r0, #32784	; 0x8010
80100bc8:	f7ff fc8a 	bl	801004e0 <printf>
80100bcc:	e009      	b.n	80100be2 <USDHC_Init+0x1b4>
80100bce:	f241 2320 	movw	r3, #4640	; 0x1220
80100bd2:	f2c8 0310 	movt	r3, #32784	; 0x8010
80100bd6:	681b      	ldr	r3, [r3, #0]
80100bd8:	6a5b      	ldr	r3, [r3, #36]	; 0x24
80100bda:	f003 0308 	and.w	r3, r3, #8
80100bde:	2b00      	cmp	r3, #0
80100be0:	d0f5      	beq.n	80100bce <USDHC_Init+0x1a0>
80100be2:	bd80      	pop	{r7, pc}

80100be4 <USDHC_Reset>:
80100be4:	b480      	push	{r7}
80100be6:	b083      	sub	sp, #12
80100be8:	af00      	add	r7, sp, #0
80100bea:	6078      	str	r0, [r7, #4]
80100bec:	6039      	str	r1, [r7, #0]
80100bee:	f241 2320 	movw	r3, #4640	; 0x1220
80100bf2:	f2c8 0310 	movt	r3, #32784	; 0x8010
80100bf6:	681a      	ldr	r2, [r3, #0]
80100bf8:	f241 2320 	movw	r3, #4640	; 0x1220
80100bfc:	f2c8 0310 	movt	r3, #32784	; 0x8010
80100c00:	681b      	ldr	r3, [r3, #0]
80100c02:	6ad9      	ldr	r1, [r3, #44]	; 0x2c
80100c04:	687b      	ldr	r3, [r7, #4]
80100c06:	430b      	orrs	r3, r1
80100c08:	62d3      	str	r3, [r2, #44]	; 0x2c
80100c0a:	e005      	b.n	80100c18 <USDHC_Reset+0x34>
80100c0c:	683b      	ldr	r3, [r7, #0]
80100c0e:	2b00      	cmp	r3, #0
80100c10:	d00d      	beq.n	80100c2e <USDHC_Reset+0x4a>
80100c12:	683b      	ldr	r3, [r7, #0]
80100c14:	3b01      	subs	r3, #1
80100c16:	603b      	str	r3, [r7, #0]
80100c18:	f241 2320 	movw	r3, #4640	; 0x1220
80100c1c:	f2c8 0310 	movt	r3, #32784	; 0x8010
80100c20:	681b      	ldr	r3, [r3, #0]
80100c22:	6ada      	ldr	r2, [r3, #44]	; 0x2c
80100c24:	687b      	ldr	r3, [r7, #4]
80100c26:	4013      	ands	r3, r2
80100c28:	2b00      	cmp	r3, #0
80100c2a:	d1ef      	bne.n	80100c0c <USDHC_Reset+0x28>
80100c2c:	e000      	b.n	80100c30 <USDHC_Reset+0x4c>
80100c2e:	bf00      	nop
80100c30:	683b      	ldr	r3, [r7, #0]
80100c32:	2b00      	cmp	r3, #0
80100c34:	bf14      	ite	ne
80100c36:	2301      	movne	r3, #1
80100c38:	2300      	moveq	r3, #0
80100c3a:	b2db      	uxtb	r3, r3
80100c3c:	4618      	mov	r0, r3
80100c3e:	370c      	adds	r7, #12
80100c40:	46bd      	mov	sp, r7
80100c42:	f85d 7b04 	ldr.w	r7, [sp], #4
80100c46:	4770      	bx	lr

80100c48 <USDHC_SendCommand>:
80100c48:	b580      	push	{r7, lr}
80100c4a:	b082      	sub	sp, #8
80100c4c:	af00      	add	r7, sp, #0
80100c4e:	6078      	str	r0, [r7, #4]
80100c50:	bf00      	nop
80100c52:	f241 2320 	movw	r3, #4640	; 0x1220
80100c56:	f2c8 0310 	movt	r3, #32784	; 0x8010
80100c5a:	681b      	ldr	r3, [r3, #0]
80100c5c:	6a5b      	ldr	r3, [r3, #36]	; 0x24
80100c5e:	f003 0301 	and.w	r3, r3, #1
80100c62:	2b00      	cmp	r3, #0
80100c64:	d1f5      	bne.n	80100c52 <USDHC_SendCommand+0xa>
80100c66:	bf00      	nop
80100c68:	f241 2320 	movw	r3, #4640	; 0x1220
80100c6c:	f2c8 0310 	movt	r3, #32784	; 0x8010
80100c70:	681b      	ldr	r3, [r3, #0]
80100c72:	6a5b      	ldr	r3, [r3, #36]	; 0x24
80100c74:	f003 0302 	and.w	r3, r3, #2
80100c78:	2b00      	cmp	r3, #0
80100c7a:	d1f5      	bne.n	80100c68 <USDHC_SendCommand+0x20>
80100c7c:	687b      	ldr	r3, [r7, #4]
80100c7e:	681b      	ldr	r3, [r3, #0]
80100c80:	4619      	mov	r1, r3
80100c82:	f241 2000 	movw	r0, #4608	; 0x1200
80100c86:	f2c8 0010 	movt	r0, #32784	; 0x8010
80100c8a:	f7ff fc29 	bl	801004e0 <printf>
80100c8e:	f241 2320 	movw	r3, #4640	; 0x1220
80100c92:	f2c8 0310 	movt	r3, #32784	; 0x8010
80100c96:	681a      	ldr	r2, [r3, #0]
80100c98:	f241 2320 	movw	r3, #4640	; 0x1220
80100c9c:	f2c8 0310 	movt	r3, #32784	; 0x8010
80100ca0:	681b      	ldr	r3, [r3, #0]
80100ca2:	6c9b      	ldr	r3, [r3, #72]	; 0x48
80100ca4:	f023 033a 	bic.w	r3, r3, #58	; 0x3a
80100ca8:	6493      	str	r3, [r2, #72]	; 0x48
80100caa:	f241 2320 	movw	r3, #4640	; 0x1220
80100cae:	f2c8 0310 	movt	r3, #32784	; 0x8010
80100cb2:	681a      	ldr	r2, [r3, #0]
80100cb4:	f241 2320 	movw	r3, #4640	; 0x1220
80100cb8:	f2c8 0310 	movt	r3, #32784	; 0x8010
80100cbc:	681b      	ldr	r3, [r3, #0]
80100cbe:	6c99      	ldr	r1, [r3, #72]	; 0x48
80100cc0:	687b      	ldr	r3, [r7, #4]
80100cc2:	69db      	ldr	r3, [r3, #28]
80100cc4:	f003 033a 	and.w	r3, r3, #58	; 0x3a
80100cc8:	430b      	orrs	r3, r1
80100cca:	6493      	str	r3, [r2, #72]	; 0x48
80100ccc:	f241 2320 	movw	r3, #4640	; 0x1220
80100cd0:	f2c8 0310 	movt	r3, #32784	; 0x8010
80100cd4:	681b      	ldr	r3, [r3, #0]
80100cd6:	687a      	ldr	r2, [r7, #4]
80100cd8:	6852      	ldr	r2, [r2, #4]
80100cda:	609a      	str	r2, [r3, #8]
80100cdc:	f241 2320 	movw	r3, #4640	; 0x1220
80100ce0:	f2c8 0310 	movt	r3, #32784	; 0x8010
80100ce4:	681a      	ldr	r2, [r3, #0]
80100ce6:	f241 2320 	movw	r3, #4640	; 0x1220
80100cea:	f2c8 0310 	movt	r3, #32784	; 0x8010
80100cee:	681b      	ldr	r3, [r3, #0]
80100cf0:	68db      	ldr	r3, [r3, #12]
80100cf2:	f023 537c 	bic.w	r3, r3, #1056964608	; 0x3f000000
80100cf6:	f423 136c 	bic.w	r3, r3, #3866624	; 0x3b0000
80100cfa:	60d3      	str	r3, [r2, #12]
80100cfc:	f241 2320 	movw	r3, #4640	; 0x1220
80100d00:	f2c8 0310 	movt	r3, #32784	; 0x8010
80100d04:	681a      	ldr	r2, [r3, #0]
80100d06:	687b      	ldr	r3, [r7, #4]
80100d08:	681b      	ldr	r3, [r3, #0]
80100d0a:	061b      	lsls	r3, r3, #24
80100d0c:	f003 517c 	and.w	r1, r3, #1056964608	; 0x3f000000
80100d10:	687b      	ldr	r3, [r7, #4]
80100d12:	6a18      	ldr	r0, [r3, #32]
80100d14:	2300      	movs	r3, #0
80100d16:	f6c3 733b 	movt	r3, #16187	; 0x3f3b
80100d1a:	4003      	ands	r3, r0
80100d1c:	430b      	orrs	r3, r1
80100d1e:	60d3      	str	r3, [r2, #12]
80100d20:	bf00      	nop
80100d22:	f241 2320 	movw	r3, #4640	; 0x1220
80100d26:	f2c8 0310 	movt	r3, #32784	; 0x8010
80100d2a:	681b      	ldr	r3, [r3, #0]
80100d2c:	6b1b      	ldr	r3, [r3, #48]	; 0x30
80100d2e:	f003 0301 	and.w	r3, r3, #1
80100d32:	2b00      	cmp	r3, #0
80100d34:	d0f5      	beq.n	80100d22 <USDHC_SendCommand+0xda>
80100d36:	f241 2320 	movw	r3, #4640	; 0x1220
80100d3a:	f2c8 0310 	movt	r3, #32784	; 0x8010
80100d3e:	681a      	ldr	r2, [r3, #0]
80100d40:	f241 2320 	movw	r3, #4640	; 0x1220
80100d44:	f2c8 0310 	movt	r3, #32784	; 0x8010
80100d48:	681b      	ldr	r3, [r3, #0]
80100d4a:	6b1b      	ldr	r3, [r3, #48]	; 0x30
80100d4c:	f003 0301 	and.w	r3, r3, #1
80100d50:	6313      	str	r3, [r2, #48]	; 0x30
80100d52:	6878      	ldr	r0, [r7, #4]
80100d54:	f000 f804 	bl	80100d60 <USDHC_ReadResponse>
80100d58:	bf00      	nop
80100d5a:	3708      	adds	r7, #8
80100d5c:	46bd      	mov	sp, r7
80100d5e:	bd80      	pop	{r7, pc}

80100d60 <USDHC_ReadResponse>:
80100d60:	b480      	push	{r7}
80100d62:	b085      	sub	sp, #20
80100d64:	af00      	add	r7, sp, #0
80100d66:	6078      	str	r0, [r7, #4]
80100d68:	687b      	ldr	r3, [r7, #4]
80100d6a:	699b      	ldr	r3, [r3, #24]
80100d6c:	2b00      	cmp	r3, #0
80100d6e:	d04e      	beq.n	80100e0e <USDHC_ReadResponse+0xae>
80100d70:	f241 2320 	movw	r3, #4640	; 0x1220
80100d74:	f2c8 0310 	movt	r3, #32784	; 0x8010
80100d78:	681b      	ldr	r3, [r3, #0]
80100d7a:	691a      	ldr	r2, [r3, #16]
80100d7c:	687b      	ldr	r3, [r7, #4]
80100d7e:	609a      	str	r2, [r3, #8]
80100d80:	687b      	ldr	r3, [r7, #4]
80100d82:	699b      	ldr	r3, [r3, #24]
80100d84:	2b03      	cmp	r3, #3
80100d86:	d142      	bne.n	80100e0e <USDHC_ReadResponse+0xae>
80100d88:	f241 2320 	movw	r3, #4640	; 0x1220
80100d8c:	f2c8 0310 	movt	r3, #32784	; 0x8010
80100d90:	681b      	ldr	r3, [r3, #0]
80100d92:	695a      	ldr	r2, [r3, #20]
80100d94:	687b      	ldr	r3, [r7, #4]
80100d96:	60da      	str	r2, [r3, #12]
80100d98:	f241 2320 	movw	r3, #4640	; 0x1220
80100d9c:	f2c8 0310 	movt	r3, #32784	; 0x8010
80100da0:	681b      	ldr	r3, [r3, #0]
80100da2:	699a      	ldr	r2, [r3, #24]
80100da4:	687b      	ldr	r3, [r7, #4]
80100da6:	611a      	str	r2, [r3, #16]
80100da8:	f241 2320 	movw	r3, #4640	; 0x1220
80100dac:	f2c8 0310 	movt	r3, #32784	; 0x8010
80100db0:	681b      	ldr	r3, [r3, #0]
80100db2:	69da      	ldr	r2, [r3, #28]
80100db4:	687b      	ldr	r3, [r7, #4]
80100db6:	615a      	str	r2, [r3, #20]
80100db8:	2304      	movs	r3, #4
80100dba:	60fb      	str	r3, [r7, #12]
80100dbc:	68fb      	ldr	r3, [r7, #12]
80100dbe:	1e5a      	subs	r2, r3, #1
80100dc0:	68fb      	ldr	r3, [r7, #12]
80100dc2:	1e59      	subs	r1, r3, #1
80100dc4:	687b      	ldr	r3, [r7, #4]
80100dc6:	3102      	adds	r1, #2
80100dc8:	f853 3021 	ldr.w	r3, [r3, r1, lsl #2]
80100dcc:	0219      	lsls	r1, r3, #8
80100dce:	687b      	ldr	r3, [r7, #4]
80100dd0:	3202      	adds	r2, #2
80100dd2:	f843 1022 	str.w	r1, [r3, r2, lsl #2]
80100dd6:	68fb      	ldr	r3, [r7, #12]
80100dd8:	2b01      	cmp	r3, #1
80100dda:	d913      	bls.n	80100e04 <USDHC_ReadResponse+0xa4>
80100ddc:	68fb      	ldr	r3, [r7, #12]
80100dde:	1e5a      	subs	r2, r3, #1
80100de0:	68fb      	ldr	r3, [r7, #12]
80100de2:	1e59      	subs	r1, r3, #1
80100de4:	687b      	ldr	r3, [r7, #4]
80100de6:	3102      	adds	r1, #2
80100de8:	f853 1021 	ldr.w	r1, [r3, r1, lsl #2]
80100dec:	68fb      	ldr	r3, [r7, #12]
80100dee:	1e98      	subs	r0, r3, #2
80100df0:	687b      	ldr	r3, [r7, #4]
80100df2:	3002      	adds	r0, #2
80100df4:	f853 3020 	ldr.w	r3, [r3, r0, lsl #2]
80100df8:	0e1b      	lsrs	r3, r3, #24
80100dfa:	4319      	orrs	r1, r3
80100dfc:	687b      	ldr	r3, [r7, #4]
80100dfe:	3202      	adds	r2, #2
80100e00:	f843 1022 	str.w	r1, [r3, r2, lsl #2]
80100e04:	68fb      	ldr	r3, [r7, #12]
80100e06:	1e5a      	subs	r2, r3, #1
80100e08:	60fa      	str	r2, [r7, #12]
80100e0a:	2b00      	cmp	r3, #0
80100e0c:	d1d6      	bne.n	80100dbc <USDHC_ReadResponse+0x5c>
80100e0e:	bf00      	nop
80100e10:	3714      	adds	r7, #20
80100e12:	46bd      	mov	sp, r7
80100e14:	f85d 7b04 	ldr.w	r7, [sp], #4
80100e18:	4770      	bx	lr
80100e1a:	0000      	movs	r0, r0
80100e1c:	0000      	movs	r0, r0
	...

80100e20 <__aeabi_uidiv>:
80100e20:	1e4a      	subs	r2, r1, #1
80100e22:	bf08      	it	eq
80100e24:	4770      	bxeq	lr
80100e26:	f0c0 8124 	bcc.w	80101072 <__aeabi_uidiv+0x252>
80100e2a:	4288      	cmp	r0, r1
80100e2c:	f240 8116 	bls.w	8010105c <__aeabi_uidiv+0x23c>
80100e30:	4211      	tst	r1, r2
80100e32:	f000 8117 	beq.w	80101064 <__aeabi_uidiv+0x244>
80100e36:	fab0 f380 	clz	r3, r0
80100e3a:	fab1 f281 	clz	r2, r1
80100e3e:	eba2 0303 	sub.w	r3, r2, r3
80100e42:	f1c3 031f 	rsb	r3, r3, #31
80100e46:	a204      	add	r2, pc, #16	; (adr r2, 80100e58 <__aeabi_uidiv+0x38>)
80100e48:	eb02 1303 	add.w	r3, r2, r3, lsl #4
80100e4c:	f04f 0200 	mov.w	r2, #0
80100e50:	469f      	mov	pc, r3
80100e52:	bf00      	nop
80100e54:	f3af 8000 	nop.w
80100e58:	ebb0 7fc1 	cmp.w	r0, r1, lsl #31
80100e5c:	bf00      	nop
80100e5e:	eb42 0202 	adc.w	r2, r2, r2
80100e62:	bf28      	it	cs
80100e64:	eba0 70c1 	subcs.w	r0, r0, r1, lsl #31
80100e68:	ebb0 7f81 	cmp.w	r0, r1, lsl #30
80100e6c:	bf00      	nop
80100e6e:	eb42 0202 	adc.w	r2, r2, r2
80100e72:	bf28      	it	cs
80100e74:	eba0 7081 	subcs.w	r0, r0, r1, lsl #30
80100e78:	ebb0 7f41 	cmp.w	r0, r1, lsl #29
80100e7c:	bf00      	nop
80100e7e:	eb42 0202 	adc.w	r2, r2, r2
80100e82:	bf28      	it	cs
80100e84:	eba0 7041 	subcs.w	r0, r0, r1, lsl #29
80100e88:	ebb0 7f01 	cmp.w	r0, r1, lsl #28
80100e8c:	bf00      	nop
80100e8e:	eb42 0202 	adc.w	r2, r2, r2
80100e92:	bf28      	it	cs
80100e94:	eba0 7001 	subcs.w	r0, r0, r1, lsl #28
80100e98:	ebb0 6fc1 	cmp.w	r0, r1, lsl #27
80100e9c:	bf00      	nop
80100e9e:	eb42 0202 	adc.w	r2, r2, r2
80100ea2:	bf28      	it	cs
80100ea4:	eba0 60c1 	subcs.w	r0, r0, r1, lsl #27
80100ea8:	ebb0 6f81 	cmp.w	r0, r1, lsl #26
80100eac:	bf00      	nop
80100eae:	eb42 0202 	adc.w	r2, r2, r2
80100eb2:	bf28      	it	cs
80100eb4:	eba0 6081 	subcs.w	r0, r0, r1, lsl #26
80100eb8:	ebb0 6f41 	cmp.w	r0, r1, lsl #25
80100ebc:	bf00      	nop
80100ebe:	eb42 0202 	adc.w	r2, r2, r2
80100ec2:	bf28      	it	cs
80100ec4:	eba0 6041 	subcs.w	r0, r0, r1, lsl #25
80100ec8:	ebb0 6f01 	cmp.w	r0, r1, lsl #24
80100ecc:	bf00      	nop
80100ece:	eb42 0202 	adc.w	r2, r2, r2
80100ed2:	bf28      	it	cs
80100ed4:	eba0 6001 	subcs.w	r0, r0, r1, lsl #24
80100ed8:	ebb0 5fc1 	cmp.w	r0, r1, lsl #23
80100edc:	bf00      	nop
80100ede:	eb42 0202 	adc.w	r2, r2, r2
80100ee2:	bf28      	it	cs
80100ee4:	eba0 50c1 	subcs.w	r0, r0, r1, lsl #23
80100ee8:	ebb0 5f81 	cmp.w	r0, r1, lsl #22
80100eec:	bf00      	nop
80100eee:	eb42 0202 	adc.w	r2, r2, r2
80100ef2:	bf28      	it	cs
80100ef4:	eba0 5081 	subcs.w	r0, r0, r1, lsl #22
80100ef8:	ebb0 5f41 	cmp.w	r0, r1, lsl #21
80100efc:	bf00      	nop
80100efe:	eb42 0202 	adc.w	r2, r2, r2
80100f02:	bf28      	it	cs
80100f04:	eba0 5041 	subcs.w	r0, r0, r1, lsl #21
80100f08:	ebb0 5f01 	cmp.w	r0, r1, lsl #20
80100f0c:	bf00      	nop
80100f0e:	eb42 0202 	adc.w	r2, r2, r2
80100f12:	bf28      	it	cs
80100f14:	eba0 5001 	subcs.w	r0, r0, r1, lsl #20
80100f18:	ebb0 4fc1 	cmp.w	r0, r1, lsl #19
80100f1c:	bf00      	nop
80100f1e:	eb42 0202 	adc.w	r2, r2, r2
80100f22:	bf28      	it	cs
80100f24:	eba0 40c1 	subcs.w	r0, r0, r1, lsl #19
80100f28:	ebb0 4f81 	cmp.w	r0, r1, lsl #18
80100f2c:	bf00      	nop
80100f2e:	eb42 0202 	adc.w	r2, r2, r2
80100f32:	bf28      	it	cs
80100f34:	eba0 4081 	subcs.w	r0, r0, r1, lsl #18
80100f38:	ebb0 4f41 	cmp.w	r0, r1, lsl #17
80100f3c:	bf00      	nop
80100f3e:	eb42 0202 	adc.w	r2, r2, r2
80100f42:	bf28      	it	cs
80100f44:	eba0 4041 	subcs.w	r0, r0, r1, lsl #17
80100f48:	ebb0 4f01 	cmp.w	r0, r1, lsl #16
80100f4c:	bf00      	nop
80100f4e:	eb42 0202 	adc.w	r2, r2, r2
80100f52:	bf28      	it	cs
80100f54:	eba0 4001 	subcs.w	r0, r0, r1, lsl #16
80100f58:	ebb0 3fc1 	cmp.w	r0, r1, lsl #15
80100f5c:	bf00      	nop
80100f5e:	eb42 0202 	adc.w	r2, r2, r2
80100f62:	bf28      	it	cs
80100f64:	eba0 30c1 	subcs.w	r0, r0, r1, lsl #15
80100f68:	ebb0 3f81 	cmp.w	r0, r1, lsl #14
80100f6c:	bf00      	nop
80100f6e:	eb42 0202 	adc.w	r2, r2, r2
80100f72:	bf28      	it	cs
80100f74:	eba0 3081 	subcs.w	r0, r0, r1, lsl #14
80100f78:	ebb0 3f41 	cmp.w	r0, r1, lsl #13
80100f7c:	bf00      	nop
80100f7e:	eb42 0202 	adc.w	r2, r2, r2
80100f82:	bf28      	it	cs
80100f84:	eba0 3041 	subcs.w	r0, r0, r1, lsl #13
80100f88:	ebb0 3f01 	cmp.w	r0, r1, lsl #12
80100f8c:	bf00      	nop
80100f8e:	eb42 0202 	adc.w	r2, r2, r2
80100f92:	bf28      	it	cs
80100f94:	eba0 3001 	subcs.w	r0, r0, r1, lsl #12
80100f98:	ebb0 2fc1 	cmp.w	r0, r1, lsl #11
80100f9c:	bf00      	nop
80100f9e:	eb42 0202 	adc.w	r2, r2, r2
80100fa2:	bf28      	it	cs
80100fa4:	eba0 20c1 	subcs.w	r0, r0, r1, lsl #11
80100fa8:	ebb0 2f81 	cmp.w	r0, r1, lsl #10
80100fac:	bf00      	nop
80100fae:	eb42 0202 	adc.w	r2, r2, r2
80100fb2:	bf28      	it	cs
80100fb4:	eba0 2081 	subcs.w	r0, r0, r1, lsl #10
80100fb8:	ebb0 2f41 	cmp.w	r0, r1, lsl #9
80100fbc:	bf00      	nop
80100fbe:	eb42 0202 	adc.w	r2, r2, r2
80100fc2:	bf28      	it	cs
80100fc4:	eba0 2041 	subcs.w	r0, r0, r1, lsl #9
80100fc8:	ebb0 2f01 	cmp.w	r0, r1, lsl #8
80100fcc:	bf00      	nop
80100fce:	eb42 0202 	adc.w	r2, r2, r2
80100fd2:	bf28      	it	cs
80100fd4:	eba0 2001 	subcs.w	r0, r0, r1, lsl #8
80100fd8:	ebb0 1fc1 	cmp.w	r0, r1, lsl #7
80100fdc:	bf00      	nop
80100fde:	eb42 0202 	adc.w	r2, r2, r2
80100fe2:	bf28      	it	cs
80100fe4:	eba0 10c1 	subcs.w	r0, r0, r1, lsl #7
80100fe8:	ebb0 1f81 	cmp.w	r0, r1, lsl #6
80100fec:	bf00      	nop
80100fee:	eb42 0202 	adc.w	r2, r2, r2
80100ff2:	bf28      	it	cs
80100ff4:	eba0 1081 	subcs.w	r0, r0, r1, lsl #6
80100ff8:	ebb0 1f41 	cmp.w	r0, r1, lsl #5
80100ffc:	bf00      	nop
80100ffe:	eb42 0202 	adc.w	r2, r2, r2
80101002:	bf28      	it	cs
80101004:	eba0 1041 	subcs.w	r0, r0, r1, lsl #5
80101008:	ebb0 1f01 	cmp.w	r0, r1, lsl #4
8010100c:	bf00      	nop
8010100e:	eb42 0202 	adc.w	r2, r2, r2
80101012:	bf28      	it	cs
80101014:	eba0 1001 	subcs.w	r0, r0, r1, lsl #4
80101018:	ebb0 0fc1 	cmp.w	r0, r1, lsl #3
8010101c:	bf00      	nop
8010101e:	eb42 0202 	adc.w	r2, r2, r2
80101022:	bf28      	it	cs
80101024:	eba0 00c1 	subcs.w	r0, r0, r1, lsl #3
80101028:	ebb0 0f81 	cmp.w	r0, r1, lsl #2
8010102c:	bf00      	nop
8010102e:	eb42 0202 	adc.w	r2, r2, r2
80101032:	bf28      	it	cs
80101034:	eba0 0081 	subcs.w	r0, r0, r1, lsl #2
80101038:	ebb0 0f41 	cmp.w	r0, r1, lsl #1
8010103c:	bf00      	nop
8010103e:	eb42 0202 	adc.w	r2, r2, r2
80101042:	bf28      	it	cs
80101044:	eba0 0041 	subcs.w	r0, r0, r1, lsl #1
80101048:	ebb0 0f01 	cmp.w	r0, r1
8010104c:	bf00      	nop
8010104e:	eb42 0202 	adc.w	r2, r2, r2
80101052:	bf28      	it	cs
80101054:	eba0 0001 	subcs.w	r0, r0, r1
80101058:	4610      	mov	r0, r2
8010105a:	4770      	bx	lr
8010105c:	bf0c      	ite	eq
8010105e:	2001      	moveq	r0, #1
80101060:	2000      	movne	r0, #0
80101062:	4770      	bx	lr
80101064:	fab1 f281 	clz	r2, r1
80101068:	f1c2 021f 	rsb	r2, r2, #31
8010106c:	fa20 f002 	lsr.w	r0, r0, r2
80101070:	4770      	bx	lr
80101072:	b108      	cbz	r0, 80101078 <__aeabi_uidiv+0x258>
80101074:	f04f 30ff 	mov.w	r0, #4294967295	; 0xffffffff
80101078:	f000 b80e 	b.w	80101098 <__aeabi_idiv0>

8010107c <__aeabi_uidivmod>:
8010107c:	2900      	cmp	r1, #0
8010107e:	d0f8      	beq.n	80101072 <__aeabi_uidiv+0x252>
80101080:	e92d 4003 	stmdb	sp!, {r0, r1, lr}
80101084:	f7ff fecc 	bl	80100e20 <__aeabi_uidiv>
80101088:	e8bd 4006 	ldmia.w	sp!, {r1, r2, lr}
8010108c:	fb02 f300 	mul.w	r3, r2, r0
80101090:	eba1 0103 	sub.w	r1, r1, r3
80101094:	4770      	bx	lr
80101096:	bf00      	nop

80101098 <__aeabi_idiv0>:
80101098:	b502      	push	{r1, lr}
8010109a:	f04f 0008 	mov.w	r0, #8
8010109e:	f7ff f87d 	bl	8010019c <raise>
801010a2:	bd02      	pop	{r1, pc}

Disassembly of section .rodata:

801010a4 <.LC0>:
801010a4:	20434d4d 	subcs	r4, r3, sp, asr #26
801010a8:	52207369 	eorpl	r7, r0, #-1543503871	; 0xa4000001
801010ac:	79646165 	stmdbvc	r4!, {r0, r2, r5, r6, r8, sp, lr}^
801010b0:	206b6f20 	rsbcs	r6, fp, r0, lsr #30
801010b4:	00000d0a 	andeq	r0, r0, sl, lsl #26

801010b8 <.LC1>:
801010b8:	20434d4d 	subcs	r4, r3, sp, asr #26
801010bc:	42207369 	eormi	r7, r0, #-1543503871	; 0xa4000001
801010c0:	2e797375 	mrccs	3, 3, r7, cr9, cr5, {3}
801010c4:	00000d0a 	andeq	r0, r0, sl, lsl #26

801010c8 <.LC0>:
801010c8:	73696854 	cmnvc	r9, #84, 16	; 0x540000
801010cc:	20736920 	rsbscs	r6, r3, r0, lsr #18
801010d0:	2e777777 	mrccs	7, 3, r7, cr7, cr7, {3}
801010d4:	61303031 	teqvs	r0, r1, lsr r0
801010d8:	6f2e6b73 	svcvs	0x002e6b73
801010dc:	20206772 	eorcs	r6, r0, r2, ror r7
801010e0:	5f796d20 	svcpl	0x00796d20
801010e4:	6e697270 	mcrvs	2, 3, r7, cr9, cr0, {3}
801010e8:	74206674 	strtvc	r6, [r0], #-1652	; 0xfffff98c
801010ec:	0a747365 	beq	81e1de88 <__bss_end+0x1d1cbdc>
801010f0:	0000000d 	andeq	r0, r0, sp

801010f4 <.LC1>:
801010f4:	74736574 	ldrbtvc	r6, [r3], #-1396	; 0xfffffa8c
801010f8:	61686320 	cmnvs	r8, r0, lsr #6
801010fc:	20202072 	eorcs	r2, r0, r2, ror r0
80101100:	20202020 	eorcs	r2, r0, r0, lsr #32
80101104:	20202020 	eorcs	r2, r0, r0, lsr #32
80101108:	2c63253d 	cfstr64cs	mvdx2, [r3], #-244	; 0xffffff0c
8010110c:	0d0a6325 	stceq	3, cr6, [sl, #-148]	; 0xffffff6c
80101110:	00000000 	andeq	r0, r0, r0

80101114 <.LC2>:
80101114:	74736574 	ldrbtvc	r6, [r3], #-1396	; 0xfffffa8c
80101118:	63656420 	cmnvs	r5, #32, 8	; 0x20000000
8010111c:	6c616d69 	stclvs	13, cr6, [r1], #-420	; 0xfffffe5c
80101120:	6d756e20 	ldclvs	14, cr6, [r5, #-128]!	; 0xffffff80
80101124:	20726562 	rsbscs	r6, r2, r2, ror #10
80101128:	0a64253d 	beq	81a0a624 <__bss_end+0x1909378>
8010112c:	0000000d 	andeq	r0, r0, sp

80101130 <.LC3>:
80101130:	74736574 	ldrbtvc	r6, [r3], #-1396	; 0xfffffa8c
80101134:	78656820 	stmdavc	r5!, {r5, fp, sp, lr}^
80101138:	20202020 	eorcs	r2, r0, r0, lsr #32
8010113c:	6d756e20 	ldclvs	14, cr6, [r5, #-128]!	; 0xffffff80
80101140:	20726562 	rsbscs	r6, r2, r2, ror #10
80101144:	2578303d 	ldrbcs	r3, [r8, #-61]!	; 0xffffffc3
80101148:	000d0a78 	andeq	r0, sp, r8, ror sl

8010114c <.LC4>:
8010114c:	2e777777 	mrccs	7, 3, r7, cr7, cr7, {3}
80101150:	61303031 	teqvs	r0, r1, lsr r0
80101154:	6f2e6b73 	svcvs	0x002e6b73
80101158:	00006772 	andeq	r6, r0, r2, ror r7

8010115c <.LC5>:
8010115c:	74736574 	ldrbtvc	r6, [r3], #-1396	; 0xfffffa8c
80101160:	72747320 	rsbsvc	r7, r4, #32, 6	; 0x80000000
80101164:	20676e69 	rsbcs	r6, r7, r9, ror #28
80101168:	20202020 	eorcs	r2, r0, r0, lsr #32
8010116c:	20202020 	eorcs	r2, r0, r0, lsr #32
80101170:	0a73253d 	beq	81dca66c <__bss_end+0x1cc93c0>
80101174:	0000000d 	andeq	r0, r0, sp

80101178 <.LC6>:
80101178:	3d6d756e 	cfstr64cc	mvdx7, [sp, #-440]!	; 0xfffffe48
8010117c:	64383025 	ldrtvs	r3, [r8], #-37	; 0xffffffdb
80101180:	00000d0a 	andeq	r0, r0, sl, lsl #26

80101184 <.LC7>:
80101184:	3d6d756e 	cfstr64cc	mvdx7, [sp, #-440]!	; 0xfffffe48
80101188:	0a643825 	beq	81a0f224 <__bss_end+0x190df78>
8010118c:	0000000d 	andeq	r0, r0, sp

80101190 <.LC8>:
80101190:	3d6d756e 	cfstr64cc	mvdx7, [sp, #-440]!	; 0xfffffe48
80101194:	30257830 	eorcc	r7, r5, r0, lsr r8
80101198:	0d0a7838 	stceq	8, cr7, [sl, #-224]	; 0xffffff20
8010119c:	00000000 	andeq	r0, r0, r0

801011a0 <.LC9>:
801011a0:	3d6d756e 	cfstr64cc	mvdx7, [sp, #-440]!	; 0xfffffe48
801011a4:	38257830 	stmdacc	r5!, {r4, r5, fp, ip, sp, lr}
801011a8:	000d0a78 	andeq	r0, sp, r8, ror sl

801011ac <.LC10>:
801011ac:	3d6d756e 	cfstr64cc	mvdx7, [sp, #-440]!	; 0xfffffe48
801011b0:	30257830 	eorcc	r7, r5, r0, lsr r8
801011b4:	0d0a7832 	stceq	8, cr7, [sl, #-200]	; 0xffffff38
801011b8:	00000000 	andeq	r0, r0, r0

801011bc <.LC11>:
801011bc:	3d6d756e 	cfstr64cc	mvdx7, [sp, #-440]!	; 0xfffffe48
801011c0:	32257830 	eorcc	r7, r5, #48, 16	; 0x300000
801011c4:	000d0a78 	andeq	r0, sp, r8, ror sl

801011c8 <.LC12>:
801011c8:	3d6d756e 	cfstr64cc	mvdx7, [sp, #-440]!	; 0xfffffe48
801011cc:	64353025 	ldrtvs	r3, [r5], #-37	; 0xffffffdb
801011d0:	00000d0a 	andeq	r0, r0, sl, lsl #26

801011d4 <.LC13>:
801011d4:	3d6d756e 	cfstr64cc	mvdx7, [sp, #-440]!	; 0xfffffe48
801011d8:	0a643525 	beq	81a0e674 <__bss_end+0x190d3c8>
801011dc:	0000000d 	andeq	r0, r0, sp

801011e0 <.LC0>:
801011e0:	65736552 	ldrbvs	r6, [r3, #-1362]!	; 0xfffffaae
801011e4:	75532074 	ldrbvc	r2, [r3, #-116]	; 0xffffff8c
801011e8:	73656363 	cmnvc	r5, #-1946157055	; 0x8c000001
801011ec:	000d0a73 	andeq	r0, sp, r3, ror sl

801011f0 <.LC1>:
801011f0:	65736552 	ldrbvs	r6, [r3, #-1362]!	; 0xfffffaae
801011f4:	61662074 	smcvs	25092	; 0x6204
801011f8:	0a65736c 	beq	81a5dfb0 <__bss_end+0x195cd04>
801011fc:	0000000d 	andeq	r0, r0, sp

80101200 <.LC2>:
80101200:	646e6553 	strbtvs	r6, [lr], #-1363	; 0xfffffaad
80101204:	444d4320 	strbmi	r4, [sp], #-800	; 0xfffffce0
80101208:	0a206425 	beq	8091a2a4 <__bss_end+0x818ff8>
8010120c:	Address 0x000000008010120c is out of bounds.


Disassembly of section .data:

80101210 <hex_tab>:
80101210:	33323130 	teqcc	r2, #48, 2
80101214:	37363534 			; <UNDEFINED> instruction: 0x37363534
80101218:	62613938 	rsbvs	r3, r1, #56, 18	; 0xe0000
8010121c:	66656463 	strbtvs	r6, [r5], -r3, ror #8

80101220 <usdhc2_reg>:
80101220:	02194000 	andseq	r4, r9, #0

Disassembly of section .bss:

80101224 <__bss_start>:
80101224:	00000000 	andeq	r0, r0, r0

80101228 <IOMUXC_SW_MUX_CTL_PAD_UART1_RX_DATA>:
80101228:	00000000 	andeq	r0, r0, r0

8010122c <IOMUXC_SW_MUX_CTL_PAD_NAND_RE_B>:
8010122c:	00000000 	andeq	r0, r0, r0

80101230 <IOMUXC_SW_MUX_CTL_PAD_NAND_WE_B>:
80101230:	00000000 	andeq	r0, r0, r0

80101234 <IOMUXC_SW_MUX_CTL_PAD_NAND_DATA0>:
80101234:	00000000 	andeq	r0, r0, r0

80101238 <IOMUXC_SW_MUX_CTL_PAD_NAND_DATA1>:
80101238:	00000000 	andeq	r0, r0, r0

8010123c <IOMUXC_SW_MUX_CTL_PAD_NAND_DATA2>:
8010123c:	00000000 	andeq	r0, r0, r0

80101240 <IOMUXC_SW_MUX_CTL_PAD_NAND_DATA3>:
80101240:	00000000 	andeq	r0, r0, r0

80101244 <IOMUXC_SW_MUX_CTL_PAD_NAND_DATA4>:
80101244:	00000000 	andeq	r0, r0, r0

80101248 <IOMUXC_SW_MUX_CTL_PAD_NAND_DATA5>:
80101248:	00000000 	andeq	r0, r0, r0

8010124c <IOMUXC_SW_MUX_CTL_PAD_NAND_DATA6>:
8010124c:	00000000 	andeq	r0, r0, r0

80101250 <IOMUXC_SW_MUX_CTL_PAD_NAND_DATA7>:
80101250:	00000000 	andeq	r0, r0, r0

80101254 <IOMUXC_SW_MUX_CTL_PAD_NAND_ALE>:
80101254:	00000000 	andeq	r0, r0, r0

80101258 <IOMUXC_USDHC2_CLK_SELECT_INPUT>:
80101258:	00000000 	andeq	r0, r0, r0

8010125c <IOMUXC_USDHC2_CMD_SELECT_INPUT>:
8010125c:	00000000 	andeq	r0, r0, r0

80101260 <IOMUXC_USDHC2_DATA0_SELECT_INPUT>:
80101260:	00000000 	andeq	r0, r0, r0

80101264 <IOMUXC_USDHC2_DATA1_SELECT_INPUT>:
80101264:	00000000 	andeq	r0, r0, r0

80101268 <IOMUXC_USDHC2_DATA2_SELECT_INPUT>:
80101268:	00000000 	andeq	r0, r0, r0

8010126c <IOMUXC_USDHC2_DATA3_SELECT_INPUT>:
8010126c:	00000000 	andeq	r0, r0, r0

80101270 <IOMUXC_USDHC2_DATA4_SELECT_INPUT>:
80101270:	00000000 	andeq	r0, r0, r0

80101274 <IOMUXC_USDHC2_DATA5_SELECT_INPUT>:
80101274:	00000000 	andeq	r0, r0, r0

80101278 <IOMUXC_USDHC2_DATA6_SELECT_INPUT>:
80101278:	00000000 	andeq	r0, r0, r0

8010127c <IOMUXC_USDHC2_DATA7_SELECT_INPUT>:
8010127c:	00000000 	andeq	r0, r0, r0

80101280 <IOMUXC_SW_PAD_CTL_PAD_NAND_RE_B>:
80101280:	00000000 	andeq	r0, r0, r0

80101284 <IOMUXC_SW_PAD_CTL_PAD_NAND_WE_B>:
80101284:	00000000 	andeq	r0, r0, r0

80101288 <IOMUXC_SW_PAD_CTL_PAD_NAND_DATA00>:
80101288:	00000000 	andeq	r0, r0, r0

8010128c <IOMUXC_SW_PAD_CTL_PAD_NAND_DATA01>:
8010128c:	00000000 	andeq	r0, r0, r0

80101290 <IOMUXC_SW_PAD_CTL_PAD_NAND_DATA02>:
80101290:	00000000 	andeq	r0, r0, r0

80101294 <IOMUXC_SW_PAD_CTL_PAD_NAND_DATA03>:
80101294:	00000000 	andeq	r0, r0, r0

80101298 <IOMUXC_SW_PAD_CTL_PAD_NAND_DATA04>:
80101298:	00000000 	andeq	r0, r0, r0

8010129c <IOMUXC_SW_PAD_CTL_PAD_NAND_DATA05>:
8010129c:	00000000 	andeq	r0, r0, r0

801012a0 <IOMUXC_SW_PAD_CTL_PAD_NAND_DATA06>:
801012a0:	00000000 	andeq	r0, r0, r0

801012a4 <IOMUXC_SW_PAD_CTL_PAD_NAND_DATA07>:
801012a4:	00000000 	andeq	r0, r0, r0

801012a8 <CCM_CCGR6>:
801012a8:	00000000 	andeq	r0, r0, r0

Disassembly of section .ARM.attributes:

00000000 <.ARM.attributes>:
   0:	00002e41 	andeq	r2, r0, r1, asr #28
   4:	61656100 	cmnvs	r5, r0, lsl #2
   8:	01006962 	tsteq	r0, r2, ror #18
   c:	00000024 	andeq	r0, r0, r4, lsr #32
  10:	412d3705 			; <UNDEFINED> instruction: 0x412d3705
  14:	070a0600 	streq	r0, [sl, -r0, lsl #12]
  18:	09010841 	stmdbeq	r1, {r0, r6, fp}
  1c:	12040a02 	andne	r0, r4, #8192	; 0x2000
  20:	15011404 	strne	r1, [r1, #-1028]	; 0xfffffbfc
  24:	18031701 	stmdane	r3, {r0, r8, r9, sl, ip}
  28:	1c021a01 			; <UNDEFINED> instruction: 0x1c021a01
  2c:	Address 0x000000000000002c is out of bounds.


Disassembly of section .comment:

00000000 <.comment>:
   0:	3a434347 	bcc	10d0d24 <shift+0x10d0d24>
   4:	694c2820 	stmdbvs	ip, {r5, fp, sp}^
   8:	6f72616e 	svcvs	0x0072616e
   c:	43434720 	movtmi	r4, #14112	; 0x3720
  10:	322e3620 	eorcc	r3, lr, #32, 12	; 0x2000000
  14:	3130322d 	teqcc	r0, sp, lsr #4
  18:	31312e36 	teqcc	r1, r6, lsr lr
  1c:	2e362029 	cdpcs	0, 3, cr2, cr6, cr9, {1}
  20:	20312e32 	eorscs	r2, r1, r2, lsr lr
  24:	36313032 			; <UNDEFINED> instruction: 0x36313032
  28:	36313031 			; <UNDEFINED> instruction: 0x36313031
	...

Disassembly of section .debug_line:

00000000 <.debug_line>:
   0:	00000043 	andeq	r0, r0, r3, asr #32
   4:	001e0002 	andseq	r0, lr, r2
   8:	01020000 	mrseq	r0, (UNDEF: 2)
   c:	000d0efb 	strdeq	r0, [sp], -fp
  10:	01010101 	tsteq	r1, r1, lsl #2
  14:	01000000 	mrseq	r0, (UNDEF: 0)
  18:	00010000 	andeq	r0, r1, r0
  1c:	72617473 	rsbvc	r7, r1, #1929379840	; 0x73000000
  20:	00532e74 	subseq	r2, r3, r4, ror lr
  24:	00000000 	andeq	r0, r0, r0
  28:	00020500 	andeq	r0, r2, r0, lsl #10
  2c:	18801000 	stmne	r0, {ip}
  30:	32313030 	eorscc	r3, r1, #48	; 0x30
  34:	2f302f2f 	svccs	0x00302f2f
  38:	03302f2f 	teqeq	r0, #47, 30	; 0xbc
  3c:	0b032e6c 	bleq	cb9f4 <shift+0xcb9f4>
  40:	02022f2e 	andeq	r2, r2, #46, 30	; 0xb8
  44:	69010100 	stmdbvs	r1, {r8}
  48:	02000000 	andeq	r0, r0, #0
  4c:	00002700 	andeq	r2, r0, r0, lsl #14
  50:	fb010200 	blx	4085a <shift+0x4085a>
  54:	01000d0e 	tsteq	r0, lr, lsl #26
  58:	00010101 	andeq	r0, r1, r1, lsl #2
  5c:	00010000 	andeq	r0, r1, r0
  60:	75000100 	strvc	r0, [r0, #-256]	; 0xffffff00
  64:	2e747261 	cdpcs	2, 7, cr7, cr4, cr1, {3}
  68:	00000063 	andeq	r0, r0, r3, rrx
  6c:	72617500 	rsbvc	r7, r1, #0, 10
  70:	00682e74 	rsbeq	r2, r8, r4, ror lr
  74:	00000000 	andeq	r0, r0, r0
  78:	3c020500 	cfstr32cc	mvfx0, [r2], {-0}
  7c:	19801000 	stmibne	r0, {ip}
  80:	75848330 	strvc	r8, [r4, #816]	; 0x330
  84:	ba0d0376 	blt	340e64 <shift+0x340e64>
  88:	ba1003dd 	blt	401004 <shift+0x401004>
  8c:	bb766775 	bllt	1d99e68 <shift+0x1d99e68>
  90:	02004b5b 	andeq	r4, r0, #93184	; 0x16c00
  94:	20060104 	andcs	r0, r6, r4, lsl #2
  98:	68679106 	stmdavs	r7!, {r1, r2, r8, ip, pc}^
  9c:	0402002f 	streq	r0, [r2], #-47	; 0xffffffd1
  a0:	06200601 	strteq	r0, [r0], -r1, lsl #12
  a4:	4b5a5991 	blmi	16966f0 <shift+0x16966f0>
  a8:	4f395922 	svcmi	0x00395922
  ac:	02214b4c 	eoreq	r4, r1, #76, 22	; 0x13000
  b0:	01010006 	tsteq	r1, r6
  b4:	00000062 	andeq	r0, r0, r2, rrx
  b8:	00260002 	eoreq	r0, r6, r2
  bc:	01020000 	mrseq	r0, (UNDEF: 2)
  c0:	000d0efb 	strdeq	r0, [sp], -fp
  c4:	01010101 	tsteq	r1, r1, lsl #2
  c8:	01000000 	mrseq	r0, (UNDEF: 0)
  cc:	00010000 	andeq	r0, r1, r0
  d0:	6e69616d 	powvsez	f6, f1, #5.0
  d4:	0000632e 	andeq	r6, r0, lr, lsr #6
  d8:	6d6d0000 	stclvs	0, cr0, [sp, #-0]
  dc:	00682e63 	rsbeq	r2, r8, r3, ror #28
  e0:	00000000 	andeq	r0, r0, r0
  e4:	b2020500 	andlt	r0, r2, #0, 10
  e8:	17801001 	strne	r1, [r0, r1]
  ec:	2f302f40 	svccs	0x00302f40
  f0:	312f2f2f 			; <UNDEFINED> instruction: 0x312f2f2f
  f4:	2f2f414c 	svccs	0x002f414c
  f8:	4e303d2f 	cdpmi	13, 3, cr3, cr0, cr15, {1}
  fc:	0200673e 	andeq	r6, r0, #16252928	; 0xf80000
 100:	00240204 	eoreq	r0, r4, r4, lsl #4
 104:	03020402 	movweq	r0, #9218	; 0x2402
 108:	0200666a 	andeq	r6, r0, #111149056	; 0x6a00000
 10c:	3c060104 	stfccs	f0, [r6], {4}
 110:	3c190306 	ldccc	3, cr0, [r9], {6}
 114:	00040221 	andeq	r0, r4, r1, lsr #4
 118:	00bf0101 	adcseq	r0, pc, r1, lsl #2
 11c:	00020000 	andeq	r0, r2, r0
 120:	00000022 	andeq	r0, r0, r2, lsr #32
 124:	0efb0102 	cdpeq	1, 15, cr0, cr11, cr2, {0}
 128:	0101000d 	tsteq	r1, sp
 12c:	00000101 	andeq	r0, r0, r1, lsl #2
 130:	00000100 	andeq	r0, r0, r0, lsl #2
 134:	796d0001 	stmdbvc	sp!, {r0}^
 138:	6972705f 	ldmdbvs	r2!, {r0, r1, r2, r3, r4, r6, ip, sp, lr}^
 13c:	2e66746e 	cdpcs	4, 6, cr7, cr6, cr14, {3}
 140:	00000063 	andeq	r0, r0, r3, rrx
 144:	05000000 	streq	r0, [r0, #-0]
 148:	10023802 	andne	r3, r2, r2, lsl #16
 14c:	01150380 	tsteq	r5, r0, lsl #7
 150:	4d213d4b 	stcmi	13, cr3, [r1, #-300]!	; 0xfffffed4
 154:	4c73214b 	ldfmie	f2, [r3], #-300	; 0xfffffed4
 158:	2f834d21 	svccs	0x00834d21
 15c:	3d684d4b 	stclcc	13, cr4, [r8, #-300]!	; 0xfffffed4
 160:	0402004d 	streq	r0, [r2], #-77	; 0xffffffb3
 164:	02003201 	andeq	r3, r0, #268435456	; 0x10000000
 168:	21080104 	tstcs	r8, r4, lsl #2
 16c:	01040200 	mrseq	r0, R12_usr
 170:	0200a03d 	andeq	sl, r0, #61	; 0x3d
 174:	3c060104 	stfccs	f0, [r6], {4}
 178:	02004b06 	andeq	r4, r0, #6144	; 0x1800
 17c:	00590304 	subseq	r0, r9, r4, lsl #6
 180:	65030402 	strvs	r0, [r3, #-1026]	; 0xfffffbfe
 184:	01040200 	mrseq	r0, R12_usr
 188:	40063c06 	andmi	r3, r6, r6, lsl #24
 18c:	4f4b683d 	svcmi	0x004b683d
 190:	22302f59 	eorscs	r2, r0, #356	; 0x164
 194:	2f23594b 	svccs	0x0023594b
 198:	2f4b3d31 	svccs	0x004b3d31
 19c:	67672140 	strbvs	r2, [r7, -r0, asr #2]!
 1a0:	04020039 	streq	r0, [r2], #-57	; 0xffffffc7
 1a4:	064a0601 	strbeq	r0, [sl], -r1, lsl #12
 1a8:	13340250 	teqne	r4, #80, 4
 1ac:	c9c9c9bb 	stmibgt	r9, {r0, r1, r3, r4, r5, r7, r8, fp, lr, pc}^
 1b0:	0359a19f 	cmpeq	r9, #-1073741785	; 0xc0000027
 1b4:	0200205e 	andeq	r2, r0, #94	; 0x5e
 1b8:	3c060104 	stfccs	f0, [r6], {4}
 1bc:	58250306 	stmdapl	r5!, {r1, r2, r8, r9}
 1c0:	3d4d4f21 	stclcc	15, cr4, [sp, #-132]	; 0xffffff7c
 1c4:	78212f59 	stmdavc	r1!, {r0, r3, r4, r6, r8, r9, sl, fp, sp}
 1c8:	9f83672f 	svcls	0x0083672f
 1cc:	839f9f9f 	orrshi	r9, pc, #636	; 0x27c
 1d0:	759f9f83 	ldrvc	r9, [pc, #3971]	; 115b <shift+0x115b>
 1d4:	21767576 	cmncs	r6, r6, ror r5
 1d8:	01000202 	tsteq	r0, r2, lsl #4
 1dc:	0000df01 	andeq	sp, r0, r1, lsl #30
 1e0:	25000200 	strcs	r0, [r0, #-512]	; 0xfffffe00
 1e4:	02000000 	andeq	r0, r0, #0
 1e8:	0d0efb01 	vstreq	d15, [lr, #-4]
 1ec:	01010100 	mrseq	r0, (UNDEF: 17)
 1f0:	00000001 	andeq	r0, r0, r1
 1f4:	01000001 	tsteq	r0, r1
 1f8:	636d6d00 	cmnvs	sp, #0, 26
 1fc:	0000632e 	andeq	r6, r0, lr, lsr #6
 200:	6d6d0000 	stclvs	0, cr0, [sp, #-0]
 204:	00682e63 	rsbeq	r2, r8, r3, ror #28
 208:	00000000 	andeq	r0, r0, r0
 20c:	04020500 	streq	r0, [r2], #-1280	; 0xfffffb00
 210:	03801006 	orreq	r1, r0, #6
 214:	9130013b 	teqls	r0, fp, lsr r1
 218:	91919191 			; <UNDEFINED> instruction: 0x91919191
 21c:	91919191 			; <UNDEFINED> instruction: 0x91919191
 220:	75759291 	ldrbvc	r9, [r5, #-657]!	; 0xfffffd6f
 224:	75757575 	ldrbvc	r7, [r5, #-1397]!	; 0xfffffa8b
 228:	75757575 	ldrbvc	r7, [r5, #-1397]!	; 0xfffffa8b
 22c:	91919177 	orrsls	r9, r1, r7, ror r1
 230:	91919191 			; <UNDEFINED> instruction: 0x91919191
 234:	75929191 	ldrvc	r9, [r2, #401]	; 0x191
 238:	75757575 	ldrbvc	r7, [r5, #-1397]!	; 0xfffffa8b
 23c:	75757575 	ldrbvc	r7, [r5, #-1397]!	; 0xfffffa8b
 240:	91919177 	orrsls	r9, r1, r7, ror r1
 244:	91919191 			; <UNDEFINED> instruction: 0x91919191
 248:	9f929191 	svcls	0x00929191
 24c:	9f9f9f9f 	svcls	0x009f9f9f
 250:	9f9f9f9f 	svcls	0x009f9f9f
 254:	580d03a0 	stmdapl	sp, {r5, r7, r8, r9}
 258:	d931922f 	ldmdble	r1!, {r0, r1, r2, r3, r5, r9, ip, pc}
 25c:	660a0393 			; <UNDEFINED> instruction: 0x660a0393
 260:	f5d7d9d8 			; <UNDEFINED> instruction: 0xf5d7d9d8
 264:	dbdbd9d7 	blle	ff6f69c8 <__bss_end+0x7f5f571c>
 268:	03f5f3c2 	mvnseq	pc, #134217731	; 0x8000003
 26c:	00672058 	rsbeq	r2, r7, r8, asr r0
 270:	03010402 	movweq	r0, #5122	; 0x1402
 274:	03a32027 			; <UNDEFINED> instruction: 0x03a32027
 278:	d859200e 	ldmdale	r9, {r1, r2, r3, sp}^
 27c:	7a034022 	bvc	d030c <shift+0xd030c>
 280:	6725b03c 			; <UNDEFINED> instruction: 0x6725b03c
 284:	4d660d03 	stclmi	13, cr0, [r6, #-12]!
 288:	01040200 	mrseq	r0, R12_usr
 28c:	a4062006 	strge	r2, [r6], #-6
 290:	01040200 	mrseq	r0, R12_usr
 294:	a2062006 	andge	r2, r6, #6
 298:	1408d797 	strne	sp, [r8], #-1943	; 0xfffff869
 29c:	659ff48a 	ldrvs	pc, [pc, #1162]	; 72e <shift+0x72e>
 2a0:	04020032 	streq	r0, [r2], #-50	; 0xffffffce
 2a4:	06200601 	strteq	r0, [r0], -r1, lsl #12
 2a8:	033dd8a4 	teqeq	sp, #164, 16	; 0xa40000
 2ac:	4c4d4a0d 	mcrrmi	10, 0, r4, sp, cr13
 2b0:	83834c84 	orrhi	r4, r3, #132, 24	; 0x8400
 2b4:	3ec93284 	cdpcc	2, 12, cr3, cr9, cr4, {4}
 2b8:	025b3e08 	subseq	r3, fp, #8, 28	; 0x80
 2bc:	01010006 	tsteq	r1, r6
 2c0:	000000fc 	strdeq	r0, [r0], -ip
 2c4:	00c70002 	sbceq	r0, r7, r2
 2c8:	01020000 	mrseq	r0, (UNDEF: 2)
 2cc:	000d0efb 	strdeq	r0, [sp], -fp
 2d0:	01010101 	tsteq	r1, r1, lsl #2
 2d4:	01000000 	mrseq	r0, (UNDEF: 0)
 2d8:	2f010000 	svccs	0x00010000
 2dc:	656d6f68 	strbvs	r6, [sp, #-3944]!	; 0xfffff098
 2e0:	7763742f 	strbvc	r7, [r3, -pc, lsr #8]!
 2e4:	75622d67 	strbvc	r2, [r2, #-3431]!	; 0xfffff299
 2e8:	73646c69 	cmnvc	r4, #26880	; 0x6900
 2ec:	6576616c 	ldrbvs	r6, [r6, #-364]!	; 0xfffffe94
 2f0:	726f772f 	rsbvc	r7, pc, #12320768	; 0xbc0000
 2f4:	6170736b 	cmnvs	r0, fp, ror #6
 2f8:	742f6563 	strtvc	r6, [pc], #-1379	; 300 <shift+0x300>
 2fc:	2d677763 	stclcs	7, cr7, [r7, #-396]!	; 0xfffffe74
 300:	656b616d 	strbvs	r6, [fp, #-365]!	; 0xfffffe93
 304:	6c65722d 	sfmvs	f7, 2, [r5], #-180	; 0xffffff4c
 308:	65736165 	ldrbvs	r6, [r3, #-357]!	; 0xfffffe9b
 30c:	62616c2f 	rsbvs	r6, r1, #12032	; 0x2f00
 310:	642f6c65 	strtvs	r6, [pc], #-3173	; 318 <shift+0x318>
 314:	656b636f 	strbvs	r6, [fp, #-879]!	; 0xfffffc91
 318:	72742d72 	rsbsvc	r2, r4, #7296	; 0x1c80
 31c:	79747375 	ldmdbvc	r4!, {r0, r2, r4, r5, r6, r8, r9, ip, sp, lr}^
 320:	646d612d 	strbtvs	r6, [sp], #-301	; 0xfffffed3
 324:	742d3436 	strtvc	r3, [sp], #-1078	; 0xfffffbca
 328:	2d677763 	stclcs	7, cr7, [r7, #-396]!	; 0xfffffe74
 32c:	6c697562 	cfstr64vs	mvdx7, [r9], #-392	; 0xfffffe78
 330:	61742f64 	cmnvs	r4, r4, ror #30
 334:	74656772 	strbtvc	r6, [r5], #-1906	; 0xfffff88e
 338:	6d72612f 	ldfvse	f6, [r2, #-188]!	; 0xffffff44
 33c:	6e696c2d 	cdpvs	12, 6, cr6, cr9, cr13, {1}
 340:	672d7875 			; <UNDEFINED> instruction: 0x672d7875
 344:	6165756e 	cmnvs	r5, lr, ror #10
 348:	66686962 	strbtvs	r6, [r8], -r2, ror #18
 34c:	616e732f 	cmnvs	lr, pc, lsr #6
 350:	6f687370 	svcvs	0x00687370
 354:	672f7374 			; <UNDEFINED> instruction: 0x672f7374
 358:	6c2d6363 	stcvs	3, cr6, [sp], #-396	; 0xfffffe74
 35c:	72616e69 	rsbvc	r6, r1, #1680	; 0x690
 360:	2e362d6f 	cdpcs	13, 3, cr2, cr6, cr15, {3}
 364:	30322d32 	eorscc	r2, r2, r2, lsr sp
 368:	312e3631 			; <UNDEFINED> instruction: 0x312e3631
 36c:	696c2f31 	stmdbvs	ip!, {r0, r4, r5, r8, r9, sl, fp, sp}^
 370:	63636762 	cmnvs	r3, #25690112	; 0x1880000
 374:	6e6f632f 	cdpvs	3, 6, cr6, cr15, cr15, {1}
 378:	2f676966 	svccs	0x00676966
 37c:	006d7261 	rsbeq	r7, sp, r1, ror #4
 380:	62696c00 	rsbvs	r6, r9, #0, 24
 384:	6e756631 	mrcvs	6, 3, r6, cr5, cr1, {1}
 388:	532e7363 			; <UNDEFINED> instruction: 0x532e7363
 38c:	00000100 	andeq	r0, r0, r0, lsl #2
 390:	02050000 	andeq	r0, r5, #0
 394:	80100e20 	andshi	r0, r0, r0, lsr #28
 398:	0107e603 	tsteq	r7, r3, lsl #12
 39c:	2f212121 	svccs	0x00212121
 3a0:	30212f21 	eorcc	r2, r1, r1, lsr #30
 3a4:	14029102 	strne	r9, [r2], #-258	; 0xfffffefe
 3a8:	21212221 			; <UNDEFINED> instruction: 0x21212221
 3ac:	2f4c2221 	svccs	0x004c2221
 3b0:	58160324 	ldmdapl	r6, {r2, r5, r8, r9}
 3b4:	2f2f2121 	svccs	0x002f2121
 3b8:	022f2f2f 	eoreq	r2, pc, #47, 30	; 0xbc
 3bc:	01010001 	tsteq	r1, r1
 3c0:	000000e2 	andeq	r0, r0, r2, ror #1
 3c4:	00c70002 	sbceq	r0, r7, r2
 3c8:	01020000 	mrseq	r0, (UNDEF: 2)
 3cc:	000d0efb 	strdeq	r0, [sp], -fp
 3d0:	01010101 	tsteq	r1, r1, lsl #2
 3d4:	01000000 	mrseq	r0, (UNDEF: 0)
 3d8:	2f010000 	svccs	0x00010000
 3dc:	656d6f68 	strbvs	r6, [sp, #-3944]!	; 0xfffff098
 3e0:	7763742f 	strbvc	r7, [r3, -pc, lsr #8]!
 3e4:	75622d67 	strbvc	r2, [r2, #-3431]!	; 0xfffff299
 3e8:	73646c69 	cmnvc	r4, #26880	; 0x6900
 3ec:	6576616c 	ldrbvs	r6, [r6, #-364]!	; 0xfffffe94
 3f0:	726f772f 	rsbvc	r7, pc, #12320768	; 0xbc0000
 3f4:	6170736b 	cmnvs	r0, fp, ror #6
 3f8:	742f6563 	strtvc	r6, [pc], #-1379	; 400 <shift+0x400>
 3fc:	2d677763 	stclcs	7, cr7, [r7, #-396]!	; 0xfffffe74
 400:	656b616d 	strbvs	r6, [fp, #-365]!	; 0xfffffe93
 404:	6c65722d 	sfmvs	f7, 2, [r5], #-180	; 0xffffff4c
 408:	65736165 	ldrbvs	r6, [r3, #-357]!	; 0xfffffe9b
 40c:	62616c2f 	rsbvs	r6, r1, #12032	; 0x2f00
 410:	642f6c65 	strtvs	r6, [pc], #-3173	; 418 <shift+0x418>
 414:	656b636f 	strbvs	r6, [fp, #-879]!	; 0xfffffc91
 418:	72742d72 	rsbsvc	r2, r4, #7296	; 0x1c80
 41c:	79747375 	ldmdbvc	r4!, {r0, r2, r4, r5, r6, r8, r9, ip, sp, lr}^
 420:	646d612d 	strbtvs	r6, [sp], #-301	; 0xfffffed3
 424:	742d3436 	strtvc	r3, [sp], #-1078	; 0xfffffbca
 428:	2d677763 	stclcs	7, cr7, [r7, #-396]!	; 0xfffffe74
 42c:	6c697562 	cfstr64vs	mvdx7, [r9], #-392	; 0xfffffe78
 430:	61742f64 	cmnvs	r4, r4, ror #30
 434:	74656772 	strbtvc	r6, [r5], #-1906	; 0xfffff88e
 438:	6d72612f 	ldfvse	f6, [r2, #-188]!	; 0xffffff44
 43c:	6e696c2d 	cdpvs	12, 6, cr6, cr9, cr13, {1}
 440:	672d7875 			; <UNDEFINED> instruction: 0x672d7875
 444:	6165756e 	cmnvs	r5, lr, ror #10
 448:	66686962 	strbtvs	r6, [r8], -r2, ror #18
 44c:	616e732f 	cmnvs	lr, pc, lsr #6
 450:	6f687370 	svcvs	0x00687370
 454:	672f7374 			; <UNDEFINED> instruction: 0x672f7374
 458:	6c2d6363 	stcvs	3, cr6, [sp], #-396	; 0xfffffe74
 45c:	72616e69 	rsbvc	r6, r1, #1680	; 0x690
 460:	2e362d6f 	cdpcs	13, 3, cr2, cr6, cr15, {3}
 464:	30322d32 	eorscc	r2, r2, r2, lsr sp
 468:	312e3631 			; <UNDEFINED> instruction: 0x312e3631
 46c:	696c2f31 	stmdbvs	ip!, {r0, r4, r5, r8, r9, sl, fp, sp}^
 470:	63636762 	cmnvs	r3, #25690112	; 0x1880000
 474:	6e6f632f 	cdpvs	3, 6, cr6, cr15, cr15, {1}
 478:	2f676966 	svccs	0x00676966
 47c:	006d7261 	rsbeq	r7, sp, r1, ror #4
 480:	62696c00 	rsbvs	r6, r9, #0, 24
 484:	6e756631 	mrcvs	6, 3, r6, cr5, cr1, {1}
 488:	532e7363 			; <UNDEFINED> instruction: 0x532e7363
 48c:	00000100 	andeq	r0, r0, r0, lsl #2
 490:	02050000 	andeq	r0, r5, #0
 494:	80101098 	mulshi	r0, r8, r0
 498:	010ac403 	tsteq	sl, r3, lsl #8
 49c:	2f200903 	svccs	0x00200903
 4a0:	0001022f 	andeq	r0, r1, pc, lsr #4
 4a4:	Address 0x00000000000004a4 is out of bounds.


Disassembly of section .debug_info:

00000000 <.debug_info>:
   0:	00000079 	andeq	r0, r0, r9, ror r0
   4:	00000002 	andeq	r0, r0, r2
   8:	01040000 	mrseq	r0, (UNDEF: 4)
   c:	00000000 	andeq	r0, r0, r0
  10:	80100000 	andshi	r0, r0, r0
  14:	8010003c 	andshi	r0, r0, ip, lsr r0
  18:	72617473 	rsbvc	r7, r1, #1929379840	; 0x73000000
  1c:	00532e74 	subseq	r2, r3, r4, ror lr
  20:	6d6f682f 	stclvs	8, cr6, [pc, #-188]!	; ffffff6c <__bss_end+0x7fefecc0>
  24:	6f622f65 	svcvs	0x00622f65
  28:	442f6b6f 	strtmi	r6, [pc], #-2927	; 30 <shift+0x30>
  2c:	6c6e776f 	stclvs	7, cr7, [lr], #-444	; 0xfffffe44
  30:	7364616f 	cmnvc	r4, #-1073741797	; 0xc000001b
  34:	3030312f 	eorscc	r3, r0, pc, lsr #2
  38:	5f6b7361 	svcpl	0x006b7361
  3c:	36786d69 	ldrbtcc	r6, [r8], -r9, ror #26
  40:	5f6c6c75 	svcpl	0x006c6c75
  44:	736f6f4e 	cmnvc	pc, #312	; 0x138
  48:	676f7250 			; <UNDEFINED> instruction: 0x676f7250
  4c:	506d6172 	rsbpl	r6, sp, r2, ror r1
  50:	656a6f72 	strbvs	r6, [sl, #-3954]!	; 0xfffff08e
  54:	312f7463 			; <UNDEFINED> instruction: 0x312f7463
  58:	4d455f33 	stclmi	15, cr5, [r5, #-204]	; 0xffffff34
  5c:	bce7434d 	stcllt	3, cr4, [r7], #308	; 0x134
  60:	8ba8e796 	blhi	fea39ec0 <__bss_end+0x7e938c14>
  64:	5f31302f 	svcpl	0x0031302f
  68:	636d6d65 	cmnvs	sp, #6464	; 0x1940
  6c:	554e4700 	strbpl	r4, [lr, #-1792]	; 0xfffff900
  70:	20534120 	subscs	r4, r3, r0, lsr #2
  74:	37322e32 			; <UNDEFINED> instruction: 0x37322e32
  78:	0100302e 	tsteq	r0, lr, lsr #32
  7c:	00021780 	andeq	r1, r2, r0, lsl #15
  80:	14000400 	strne	r0, [r0], #-1024	; 0xfffffc00
  84:	04000000 	streq	r0, [r0], #-0
  88:	00000501 	andeq	r0, r0, r1, lsl #10
  8c:	013b0c00 	teqeq	fp, r0, lsl #24
  90:	00bc0000 	adcseq	r0, ip, r0
  94:	003c0000 	eorseq	r0, ip, r0
  98:	01768010 	cmneq	r6, r0, lsl r0
  9c:	00470000 	subeq	r0, r7, r0
  a0:	bc020000 	stclt	0, cr0, [r2], {-0}
  a4:	01120b02 	tsteq	r2, r2, lsl #22
  a8:	14030000 	strne	r0, [r3], #-0
  ac:	02000001 	andeq	r0, r0, #1
  b0:	0001190c 	andeq	r1, r1, ip, lsl #18
  b4:	09030000 	stmdbeq	r3, {}	; <UNPREDICTABLE>
  b8:	02000001 	andeq	r0, r0, #1
  bc:	00011e0d 	andeq	r1, r1, sp, lsl #28
  c0:	2c030400 	cfstrscs	mvf0, [r3], {-0}
  c4:	02000001 	andeq	r0, r0, #1
  c8:	0001190e 	andeq	r1, r1, lr, lsl #18
  cc:	a4034000 	strge	r4, [r3], #-0
  d0:	02000001 	andeq	r0, r0, #1
  d4:	00011e0f 	andeq	r1, r1, pc, lsl #28
  d8:	42034400 	andmi	r4, r3, #0, 8
  dc:	02000001 	andeq	r0, r0, #1
  e0:	00011910 	andeq	r1, r1, r0, lsl r9
  e4:	47038000 	strmi	r8, [r3, -r0]
  e8:	02000001 	andeq	r0, r0, #1
  ec:	00011911 	andeq	r1, r1, r1, lsl r9
  f0:	4c038400 	cfstrsmi	mvf8, [r3], {-0}
  f4:	02000001 	andeq	r0, r0, #1
  f8:	00011912 	andeq	r1, r1, r2, lsl r9
  fc:	51038800 	tstpl	r3, r0, lsl #16
 100:	02000001 	andeq	r0, r0, #1
 104:	00011913 	andeq	r1, r1, r3, lsl r9
 108:	19038c00 	stmdbne	r3, {sl, fp, pc}
 10c:	02000001 	andeq	r0, r0, #1
 110:	00011914 	andeq	r1, r1, r4, lsl r9
 114:	c2039000 	andgt	r9, r3, #0
 118:	02000001 	andeq	r0, r0, #1
 11c:	00011915 	andeq	r1, r1, r5, lsl r9
 120:	00039400 	andeq	r9, r3, r0, lsl #8
 124:	02000000 	andeq	r0, r0, #0
 128:	00011916 	andeq	r1, r1, r6, lsl r9
 12c:	7a039800 	bvc	e6134 <shift+0xe6134>
 130:	02000000 	andeq	r0, r0, #0
 134:	00011917 	andeq	r1, r1, r7, lsl r9
 138:	86039c00 	strhi	r9, [r3], -r0, lsl #24
 13c:	02000000 	andeq	r0, r0, #0
 140:	00011918 	andeq	r1, r1, r8, lsl r9
 144:	5603a000 	strpl	sl, [r3], -r0
 148:	02000001 	andeq	r0, r0, #1
 14c:	00011919 	andeq	r1, r1, r9, lsl r9
 150:	3103a400 	tstcc	r3, r0, lsl #8
 154:	02000001 	andeq	r0, r0, #1
 158:	0001191a 	andeq	r1, r1, sl, lsl r9
 15c:	b703a800 	strlt	sl, [r3, -r0, lsl #16]
 160:	02000000 	andeq	r0, r0, #0
 164:	0001191b 	andeq	r1, r1, fp, lsl r9
 168:	5b03ac00 	blpl	eb170 <shift+0xeb170>
 16c:	02000001 	andeq	r0, r0, #1
 170:	0001191c 	andeq	r1, r1, ip, lsl r9
 174:	5504b000 	strpl	fp, [r4, #-0]
 178:	02005354 	andeq	r5, r0, #84, 6	; 0x50000001
 17c:	0001191d 	andeq	r1, r1, sp, lsl r9
 180:	3603b400 	strcc	fp, [r3], -r0, lsl #8
 184:	02000001 	andeq	r0, r0, #1
 188:	0001191e 	andeq	r1, r1, lr, lsl r9
 18c:	0500b800 	streq	fp, [r0, #-2048]	; 0xfffff800
 190:	02fe0704 	rscseq	r0, lr, #4, 14	; 0x100000
 194:	12060000 	andne	r0, r6, #0
 198:	07000001 	streq	r0, [r0, -r1]
 19c:	00000135 	andeq	r0, r0, r5, lsr r1
 1a0:	0000012e 	andeq	r0, r0, lr, lsr #2
 1a4:	00012e08 	andeq	r2, r1, r8, lsl #28
 1a8:	05003b00 	streq	r3, [r0, #-2816]	; 0xfffff500
 1ac:	01b90704 			; <UNDEFINED> instruction: 0x01b90704
 1b0:	01050000 	mrseq	r0, (UNDEF: 5)
 1b4:	00011e08 	andeq	r1, r1, r8, lsl #28
 1b8:	01af0900 			; <UNDEFINED> instruction: 0x01af0900
 1bc:	1f020000 	svcne	0x00020000
 1c0:	00000025 	andeq	r0, r0, r5, lsr #32
 1c4:	0000930a 	andeq	r9, r0, sl, lsl #6
 1c8:	58040100 	stmdapl	r4, {r8}
 1cc:	05000001 	streq	r0, [r0, #-1]
 1d0:	10122403 	andsne	r2, r2, r3, lsl #8
 1d4:	19040b80 	stmdbne	r4, {r7, r8, r9, fp}
 1d8:	0a000001 	beq	1e4 <shift+0x1e4>
 1dc:	00000179 	andeq	r0, r0, r9, ror r1
 1e0:	01580501 	cmpeq	r8, r1, lsl #10
 1e4:	03050000 	movweq	r0, #20480	; 0x5000
 1e8:	80101228 	andshi	r1, r0, r8, lsr #4
 1ec:	0001730c 	andeq	r7, r1, ip, lsl #6
 1f0:	974d0100 	strbls	r0, [sp, -r0, lsl #2]
 1f4:	9c000001 	stcls	0, cr0, [r0], {1}
 1f8:	16801001 	strne	r1, [r0], r1
 1fc:	01000000 	mrseq	r0, (UNDEF: 0)
 200:	0001979c 	muleq	r1, ip, r7
 204:	007f0d00 	rsbseq	r0, pc, r0, lsl #26
 208:	4d010000 	stcmi	0, cr0, [r1, #-0]
 20c:	00000197 	muleq	r0, r7, r1
 210:	00749102 	rsbseq	r9, r4, r2, lsl #2
 214:	6905040e 	stmdbvs	r5, {r1, r2, r3, sl}
 218:	0f00746e 	svceq	0x0000746e
 21c:	0000019d 	muleq	r0, sp, r1
 220:	01724501 	cmneq	r2, r1, lsl #10
 224:	002a8010 	eoreq	r8, sl, r0, lsl r0
 228:	9c010000 	stcls	0, cr0, [r1], {-0}
 22c:	000001c0 	andeq	r0, r0, r0, asr #3
 230:	01007310 	tsteq	r0, r0, lsl r3
 234:	0001c045 	andeq	ip, r1, r5, asr #32
 238:	74910200 	ldrvc	r0, [r1], #512	; 0x200
 23c:	cd040b00 	vstrgt	d0, [r4, #-0]
 240:	05000001 	streq	r0, [r0, #-1]
 244:	01270801 			; <UNDEFINED> instruction: 0x01270801
 248:	c6110000 	ldrgt	r0, [r1], -r0
 24c:	12000001 	andne	r0, r0, #1
 250:	0000008b 	andeq	r0, r0, fp, lsl #1
 254:	01354001 	teqeq	r5, r1
 258:	01460000 	mrseq	r0, (UNDEF: 70)
 25c:	002c8010 	eoreq	r8, ip, r0, lsl r0
 260:	9c010000 	stcls	0, cr0, [r1], {-0}
 264:	00016113 	andeq	r6, r1, r3, lsl r1
 268:	123b0100 	eorsne	r0, fp, #0, 2
 26c:	34801001 	strcc	r1, [r0], #1
 270:	01000000 	mrseq	r0, (UNDEF: 0)
 274:	0002099c 	muleq	r2, ip, r9
 278:	00631000 	rsbeq	r1, r3, r0
 27c:	01973b01 	orrseq	r3, r7, r1, lsl #22
 280:	91020000 	mrsls	r0, (UNDEF: 2)
 284:	69140074 	ldmdbvs	r4, {r2, r4, r5, r6}
 288:	01000001 	tsteq	r0, r1
 28c:	10003c07 	andne	r3, r0, r7, lsl #24
 290:	0000d680 	andeq	sp, r0, r0, lsl #13
 294:	009c0100 	addseq	r0, ip, r0, lsl #2
 298:	00000132 	andeq	r0, r0, r2, lsr r1
 29c:	014e0004 	cmpeq	lr, r4
 2a0:	01040000 	mrseq	r0, (UNDEF: 4)
 2a4:	00000005 	andeq	r0, r0, r5
 2a8:	0002470c 	andeq	r4, r2, ip, lsl #14
 2ac:	0000bc00 	andeq	fp, r0, r0, lsl #24
 2b0:	1001b200 	andne	fp, r1, r0, lsl #4
 2b4:	00008480 	andeq	r8, r0, r0, lsl #9
 2b8:	0000b400 	andeq	fp, r0, r0, lsl #8
 2bc:	07040200 	streq	r0, [r4, -r0, lsl #4]
 2c0:	000002fe 	strdeq	r0, [r0], -lr
 2c4:	b9070402 	stmdblt	r7, {r1, sl}
 2c8:	02000001 	andeq	r0, r0, #1
 2cc:	011e0801 	tsteq	lr, r1, lsl #16
 2d0:	04030000 	streq	r0, [r3], #-0
 2d4:	00000025 	andeq	r0, r0, r5, lsr #32
 2d8:	00833002 	addeq	r3, r3, r2
 2dc:	fd040000 	stc2	0, cr0, [r4, #-0]
 2e0:	00000001 	andeq	r0, r0, r1
 2e4:	00025404 	andeq	r5, r2, r4, lsl #8
 2e8:	c7040100 	strgt	r0, [r4, -r0, lsl #2]
 2ec:	02000001 	andeq	r0, r0, #1
 2f0:	00026304 	andeq	r6, r2, r4, lsl #6
 2f4:	72040300 	andvc	r0, r4, #0, 6
 2f8:	04000002 	streq	r0, [r0], #-2
 2fc:	00028104 	andeq	r8, r2, r4, lsl #2
 300:	90040500 	andls	r0, r4, r0, lsl #10
 304:	06000002 	streq	r0, [r0], -r2
 308:	0001ed04 	andeq	lr, r1, r4, lsl #26
 30c:	9f040700 	svcls	0x00040700
 310:	08000002 	stmdaeq	r0, {r1}
 314:	0002ae04 	andeq	sl, r2, r4, lsl #28
 318:	05000900 	streq	r0, [r0, #-2304]	; 0xfffff700
 31c:	00000233 	andeq	r0, r0, r3, lsr r2
 320:	003a3b02 	eorseq	r3, sl, r2, lsl #22
 324:	24060000 	strcs	r0, [r6], #-0
 328:	00df3d02 	sbcseq	r3, pc, r2, lsl #26
 32c:	4e070000 	cdpmi	0, 0, cr0, cr7, cr0, {0}
 330:	02000002 	andeq	r0, r0, #2
 334:	0000253f 	andeq	r2, r0, pc, lsr r5
 338:	61080000 	mrsvs	r0, (UNDEF: 8)
 33c:	02006772 	andeq	r6, r0, #29884416	; 0x1c80000
 340:	00002540 	andeq	r2, r0, r0, asr #10
 344:	2a070400 	bcs	1c134c <shift+0x1c134c>
 348:	02000002 	andeq	r0, r0, #2
 34c:	0000df41 	andeq	sp, r0, r1, asr #30
 350:	1c070800 	stcne	8, cr0, [r7], {-0}
 354:	02000002 	andeq	r0, r0, #2
 358:	00008342 	andeq	r8, r0, r2, asr #6
 35c:	0e071800 	cdpeq	8, 0, cr1, cr7, cr0, {0}
 360:	02000002 	andeq	r0, r0, #2
 364:	00002543 	andeq	r2, r0, r3, asr #10
 368:	bd071c00 	stclt	12, cr1, [r7, #-0]
 36c:	02000002 	andeq	r0, r0, #2
 370:	00002544 	andeq	r2, r0, r4, asr #10
 374:	09002000 	stmdbeq	r0, {sp}
 378:	00000025 	andeq	r0, r0, r5, lsr #32
 37c:	000000ef 	andeq	r0, r0, pc, ror #1
 380:	00002c0a 	andeq	r2, r0, sl, lsl #24
 384:	05000300 	streq	r0, [r0, #-768]	; 0xfffffd00
 388:	000001d7 	ldrdeq	r0, [r0], -r7
 38c:	008e4502 	addeq	r4, lr, r2, lsl #10
 390:	170b0000 	strne	r0, [fp, -r0]
 394:	01000002 	tsteq	r0, r2
 398:	00012e05 	andeq	r2, r1, r5, lsl #28
 39c:	1001b200 	andne	fp, r1, r0, lsl #4
 3a0:	00008480 	andeq	r8, r0, r0, lsl #9
 3a4:	2e9c0100 	fmlcse	f0, f4, f0
 3a8:	0c000001 	stceq	0, cr0, [r0], {1}
 3ac:	07010069 	streq	r0, [r1, -r9, rrx]
 3b0:	00000025 	andeq	r0, r0, r5, lsr #32
 3b4:	0d749102 	ldfeqp	f1, [r4, #-8]!
 3b8:	000001e5 	andeq	r0, r0, r5, ror #3
 3bc:	00ef0901 	rsceq	r0, pc, r1, lsl #18
 3c0:	91020000 	mrsls	r0, (UNDEF: 2)
 3c4:	040e0050 	streq	r0, [lr], #-80	; 0xffffffb0
 3c8:	746e6905 	strbtvc	r6, [lr], #-2309	; 0xfffff6fb
 3cc:	02190000 	andseq	r0, r9, #0
 3d0:	00040000 	andeq	r0, r4, r0
 3d4:	00000212 	andeq	r0, r0, r2, lsl r2
 3d8:	00050104 	andeq	r0, r5, r4, lsl #2
 3dc:	100c0000 	andne	r0, ip, r0
 3e0:	bc000003 	stclt	0, cr0, [r0], {3}
 3e4:	38000000 	stmdacc	r0, {}	; <UNPREDICTABLE>
 3e8:	ca801002 	bgt	fe0043f8 <__bss_end+0x7df0314c>
 3ec:	1a000003 	bne	400 <shift+0x400>
 3f0:	02000001 	andeq	r0, r0, #1
 3f4:	02fe0704 	rscseq	r0, lr, #4, 14	; 0x100000
 3f8:	04020000 	streq	r0, [r2], #-0
 3fc:	0001b907 	andeq	fp, r1, r7, lsl #18
 400:	08010200 	stmdaeq	r1, {r9}
 404:	0000011e 	andeq	r0, r0, lr, lsl r1
 408:	0002de03 	andeq	sp, r2, r3, lsl #28
 40c:	45060100 	strmi	r0, [r6, #-256]	; 0xffffff00
 410:	04000000 	streq	r0, [r0], #-0
 414:	00004b04 	andeq	r4, r0, r4, lsl #22
 418:	08010200 	stmdaeq	r1, {r9}
 41c:	00000127 	andeq	r0, r0, r7, lsr #2
 420:	00004b05 	andeq	r4, r0, r5, lsl #22
 424:	00330600 	eorseq	r0, r3, r0, lsl #12
 428:	00670000 	rsbeq	r0, r7, r0
 42c:	2c070000 	stccs	0, cr0, [r7], {-0}
 430:	0f000000 	svceq	0x00000000
 434:	032a0800 			; <UNDEFINED> instruction: 0x032a0800
 438:	11010000 	mrsne	r0, (UNDEF: 1)
 43c:	00000057 	andeq	r0, r0, r7, asr r0
 440:	12100305 	andsne	r0, r0, #335544320	; 0x14000000
 444:	32098010 	andcc	r8, r9, #16
 448:	01000003 	tsteq	r0, r3
 44c:	00008d7e 	andeq	r8, r0, lr, ror sp
 450:	10050c00 	andne	r0, r5, r0, lsl #24
 454:	0000f680 	andeq	pc, r0, r0, lsl #13
 458:	0a9c0100 	beq	fe700860 <__bss_end+0x7e5ff5b4>
 45c:	6e690504 	cdpvs	5, 6, cr0, cr9, cr4, {0}
 460:	d70b0074 	smlsdxle	fp, r4, r0, r0
 464:	01000002 	tsteq	r0, r2
 468:	00008d73 	andeq	r8, r0, r3, ror sp
 46c:	1004e000 	andne	lr, r4, r0
 470:	00002c80 	andeq	r2, r0, r0, lsl #25
 474:	ca9c0100 	bgt	fe70087c <__bss_end+0x7e5ff5d0>
 478:	0c000000 	stceq	0, cr0, [r0], {-0}
 47c:	00746d66 	rsbseq	r6, r4, r6, ror #26
 480:	00ca7301 	sbceq	r7, sl, r1, lsl #6
 484:	91020000 	mrsls	r0, (UNDEF: 2)
 488:	610e0d70 	tstvs	lr, r0, ror sp
 48c:	75010070 	strvc	r0, [r1, #-112]	; 0xffffff90
 490:	0000003a 	andeq	r0, r0, sl, lsr r0
 494:	00649102 	rsbeq	r9, r4, r2, lsl #2
 498:	00520404 	subseq	r0, r2, r4, lsl #8
 49c:	d30f0000 	movwle	r0, #61440	; 0xf000
 4a0:	01000002 	tsteq	r0, r2
 4a4:	00008d44 	andeq	r8, r0, r4, asr #26
 4a8:	10034c00 	andne	r4, r3, r0, lsl #24
 4ac:	00019480 	andeq	r9, r1, r0, lsl #9
 4b0:	219c0100 	orrscs	r0, ip, r0, lsl #2
 4b4:	0c000001 	stceq	0, cr0, [r0], {1}
 4b8:	00746d66 	rsbseq	r6, r4, r6, ror #26
 4bc:	00ca4401 	sbceq	r4, sl, r1, lsl #8
 4c0:	91020000 	mrsls	r0, (UNDEF: 2)
 4c4:	70610c6c 	rsbvc	r0, r1, ip, ror #24
 4c8:	3a440100 	bcc	11008d0 <shift+0x11008d0>
 4cc:	02000000 	andeq	r0, r0, #0
 4d0:	eb106891 	bl	41a71c <shift+0x41a71c>
 4d4:	01000002 	tsteq	r0, r2
 4d8:	00004b46 	andeq	r4, r0, r6, asr #22
 4dc:	77910200 	ldrvc	r0, [r1, r0, lsl #4]
 4e0:	0002f010 	andeq	pc, r2, r0, lsl r0	; <UNPREDICTABLE>
 4e4:	8d470100 	stfhie	f0, [r7, #-0]
 4e8:	02000000 	andeq	r0, r0, #0
 4ec:	0f007091 	svceq	0x00007091
 4f0:	000002c5 	andeq	r0, r0, r5, asr #5
 4f4:	008d2201 	addeq	r2, sp, r1, lsl #4
 4f8:	027a0000 	rsbseq	r0, sl, #0
 4fc:	00d28010 	sbcseq	r8, r2, r0, lsl r0
 500:	9c010000 	stcls	0, cr0, [r1], {-0}
 504:	000001b6 			; <UNDEFINED> instruction: 0x000001b6
 508:	01006e0c 	tsteq	r0, ip, lsl #28
 50c:	0001b622 	andeq	fp, r1, r2, lsr #12
 510:	a4910300 	ldrge	r0, [r1], #768	; 0x300
 514:	02e6117f 	rsceq	r1, r6, #-1073741793	; 0xc000001f
 518:	22010000 	andcs	r0, r1, #0
 51c:	0000008d 	andeq	r0, r0, sp, lsl #1
 520:	7fa09103 	svcvc	0x00a09103
 524:	0002eb11 	andeq	lr, r2, r1, lsl fp
 528:	4b220100 	blmi	880930 <shift+0x880930>
 52c:	03000000 	movweq	r0, #0
 530:	117f9f91 			; <UNDEFINED> instruction: 0x117f9f91
 534:	000002f0 	strdeq	r0, [r0], -r0	; <UNPREDICTABLE>
 538:	008d2201 	addeq	r2, sp, r1, lsl #4
 53c:	91030000 	mrsls	r0, (UNDEF: 3)
 540:	6d0e7f98 	stcvs	15, cr7, [lr, #-608]	; 0xfffffda0
 544:	bd240100 	stflts	f0, [r4, #-0]
 548:	02000001 	andeq	r0, r0, #1
 54c:	620e7491 	andvs	r7, lr, #-1862270976	; 0x91000000
 550:	01006675 	tsteq	r0, r5, ror r6
 554:	0001c425 	andeq	ip, r1, r5, lsr #8
 558:	a8910300 	ldmge	r1, {r8, r9}
 55c:	00730e7f 	rsbseq	r0, r3, pc, ror lr
 560:	00452501 	subeq	r2, r5, r1, lsl #10
 564:	91020000 	mrsls	r0, (UNDEF: 2)
 568:	02cd1070 	sbceq	r1, sp, #112	; 0x70
 56c:	26010000 	strcs	r0, [r1], -r0
 570:	0000008d 	andeq	r0, r0, sp, lsl #1
 574:	0e6c9102 	lgneqe	f1, f2
 578:	26010069 	strcs	r0, [r1], -r9, rrx
 57c:	0000008d 	andeq	r0, r0, sp, lsl #1
 580:	00689102 	rsbeq	r9, r8, r2, lsl #2
 584:	21050402 	tstcs	r5, r2, lsl #8
 588:	02000003 	andeq	r0, r0, #3
 58c:	02f90704 	rscseq	r0, r9, #4, 14	; 0x100000
 590:	4b060000 	blmi	180598 <shift+0x180598>
 594:	d4000000 	strle	r0, [r0], #-0
 598:	07000001 	streq	r0, [r0, -r1]
 59c:	0000002c 	andeq	r0, r0, ip, lsr #32
 5a0:	1c0f003f 	stcne	0, cr0, [pc], {63}	; 0x3f
 5a4:	01000003 	tsteq	r0, r3
 5a8:	00008d1b 	andeq	r8, r0, fp, lsl sp
 5ac:	10025000 	andne	r5, r2, r0
 5b0:	00002a80 	andeq	r2, r0, r0, lsl #21
 5b4:	fa9c0100 	blx	fe7009bc <__bss_end+0x7e5ff710>
 5b8:	0c000001 	stceq	0, cr0, [r0], {1}
 5bc:	1b010073 	blne	40790 <shift+0x40790>
 5c0:	000000ca 	andeq	r0, r0, sl, asr #1
 5c4:	00749102 	rsbseq	r9, r4, r2, lsl #2
 5c8:	00030b12 	andeq	r0, r3, r2, lsl fp
 5cc:	8d150100 	ldfhis	f0, [r5, #-0]
 5d0:	38000000 	stmdacc	r0, {}	; <UNPREDICTABLE>
 5d4:	18801002 	stmne	r0, {r1, ip}
 5d8:	01000000 	mrseq	r0, (UNDEF: 0)
 5dc:	00630c9c 	mlseq	r3, ip, ip, r0
 5e0:	008d1501 	addeq	r1, sp, r1, lsl #10
 5e4:	91020000 	mrsls	r0, (UNDEF: 2)
 5e8:	a2000074 	andge	r0, r0, #116	; 0x74
 5ec:	04000005 	streq	r0, [r0], #-5
 5f0:	00032500 	andeq	r2, r3, r0, lsl #10
 5f4:	05010400 	streq	r0, [r1, #-1024]	; 0xfffffc00
 5f8:	0c000000 	stceq	0, cr0, [r0], {-0}
 5fc:	000007f0 	strdeq	r0, [r0], -r0	; <UNPREDICTABLE>
 600:	000000bc 	strheq	r0, [r0], -ip
 604:	80100604 	andshi	r0, r0, r4, lsl #12
 608:	00000816 	andeq	r0, r0, r6, lsl r8
 60c:	000001dd 	ldrdeq	r0, [r0], -sp
 610:	0c02d002 	stceq	0, cr13, [r2], {2}
 614:	000001ae 	andeq	r0, r0, lr, lsr #3
 618:	00069903 	andeq	r9, r6, r3, lsl #18
 61c:	b50d0200 	strlt	r0, [sp, #-512]	; 0xfffffe00
 620:	00000001 	andeq	r0, r0, r1
 624:	00062803 	andeq	r2, r6, r3, lsl #16
 628:	b50e0200 	strlt	r0, [lr, #-512]	; 0xfffffe00
 62c:	04000001 	streq	r0, [r0], #-1
 630:	00062003 	andeq	r2, r6, r3
 634:	b50f0200 	strlt	r0, [pc, #-512]	; 43c <shift+0x43c>
 638:	08000001 	stmdaeq	r0, {r0}
 63c:	0003eb03 	andeq	lr, r3, r3, lsl #22
 640:	b5100200 	ldrlt	r0, [r0, #-512]	; 0xfffffe00
 644:	0c000001 	stceq	0, cr0, [r0], {1}
 648:	00065c03 	andeq	r5, r6, r3, lsl #24
 64c:	b5110200 	ldrlt	r0, [r1, #-512]	; 0xfffffe00
 650:	10000001 	andne	r0, r0, r1
 654:	00066503 	andeq	r6, r6, r3, lsl #10
 658:	b5120200 	ldrlt	r0, [r2, #-512]	; 0xfffffe00
 65c:	14000001 	strne	r0, [r0], #-1
 660:	00066e03 	andeq	r6, r6, r3, lsl #28
 664:	b5130200 	ldrlt	r0, [r3, #-512]	; 0xfffffe00
 668:	18000001 	stmdane	r0, {r0}
 66c:	00067703 	andeq	r7, r6, r3, lsl #14
 670:	b5140200 	ldrlt	r0, [r4, #-512]	; 0xfffffe00
 674:	1c000001 	stcne	0, cr0, [r0], {1}
 678:	00041803 	andeq	r1, r4, r3, lsl #16
 67c:	b5150200 	ldrlt	r0, [r5, #-512]	; 0xfffffe00
 680:	20000001 	andcs	r0, r0, r1
 684:	0005f903 	andeq	pc, r5, r3, lsl #18
 688:	b5160200 	ldrlt	r0, [r6, #-512]	; 0xfffffe00
 68c:	24000001 	strcs	r0, [r0], #-1
 690:	0006a103 	andeq	sl, r6, r3, lsl #2
 694:	b5170200 	ldrlt	r0, [r7, #-512]	; 0xfffffe00
 698:	28000001 	stmdacs	r0, {r0}
 69c:	00037703 	andeq	r7, r3, r3, lsl #14
 6a0:	b5180200 	ldrlt	r0, [r8, #-512]	; 0xfffffe00
 6a4:	2c000001 	stccs	0, cr0, [r0], {1}
 6a8:	00083303 	andeq	r3, r8, r3, lsl #6
 6ac:	b5190200 	ldrlt	r0, [r9, #-512]	; 0xfffffe00
 6b0:	30000001 	andcc	r0, r0, r1
 6b4:	00061203 	andeq	r1, r6, r3, lsl #4
 6b8:	b51a0200 	ldrlt	r0, [sl, #-512]	; 0xfffffe00
 6bc:	34000001 	strcc	r0, [r0], #-1
 6c0:	0006ed03 	andeq	lr, r6, r3, lsl #26
 6c4:	b51b0200 	ldrlt	r0, [fp, #-512]	; 0xfffffe00
 6c8:	38000001 	stmdacc	r0, {r0}
 6cc:	00088403 	andeq	r8, r8, r3, lsl #8
 6d0:	b51c0200 	ldrlt	r0, [ip, #-512]	; 0xfffffe00
 6d4:	3c000001 	stccc	0, cr0, [r0], {1}
 6d8:	0004c303 	andeq	ip, r4, r3, lsl #6
 6dc:	b51d0200 	ldrlt	r0, [sp, #-512]	; 0xfffffe00
 6e0:	40000001 	andmi	r0, r0, r1
 6e4:	00034103 	andeq	r4, r3, r3, lsl #2
 6e8:	b51e0200 	ldrlt	r0, [lr, #-512]	; 0xfffffe00
 6ec:	44000001 	strmi	r0, [r0], #-1
 6f0:	00082a03 	andeq	r2, r8, r3, lsl #20
 6f4:	b51f0200 	ldrlt	r0, [pc, #-512]	; 4fc <shift+0x4fc>
 6f8:	48000001 	stmdami	r0, {r0}
 6fc:	00010903 	andeq	r0, r1, r3, lsl #18
 700:	ba200200 	blt	800f08 <shift+0x800f08>
 704:	4c000001 	stcmi	0, cr0, [r0], {1}
 708:	00045503 	andeq	r5, r4, r3, lsl #10
 70c:	b5210200 	strlt	r0, [r1, #-512]!	; 0xfffffe00
 710:	50000001 	andpl	r0, r0, r1
 714:	0008e903 	andeq	lr, r8, r3, lsl #18
 718:	b5220200 	strlt	r0, [r2, #-512]!	; 0xfffffe00
 71c:	54000001 	strpl	r0, [r0], #-1
 720:	00060403 	andeq	r0, r6, r3, lsl #8
 724:	b5230200 	strlt	r0, [r3, #-512]!	; 0xfffffe00
 728:	58000001 	stmdapl	r0, {r0}
 72c:	0001a403 	andeq	sl, r1, r3, lsl #8
 730:	ba240200 	blt	900f38 <shift+0x900f38>
 734:	5c000001 	stcpl	0, cr0, [r0], {1}
 738:	00089903 	andeq	r9, r8, r3, lsl #18
 73c:	b5250200 	strlt	r0, [r5, #-512]!	; 0xfffffe00
 740:	60000001 	andvs	r0, r0, r1
 744:	00063003 	andeq	r3, r6, r3
 748:	b5260200 	strlt	r0, [r6, #-512]!	; 0xfffffe00
 74c:	64000001 	strvs	r0, [r0], #-1
 750:	00076103 	andeq	r6, r7, r3, lsl #2
 754:	b5270200 	strlt	r0, [r7, #-512]!	; 0xfffffe00
 758:	68000001 	stmdavs	r0, {r0}
 75c:	00080d03 	andeq	r0, r8, r3, lsl #26
 760:	d8280200 	stmdale	r8!, {r9}
 764:	6c000001 	stcvs	0, cr0, [r0], {1}
 768:	00038003 	andeq	r8, r3, r3
 76c:	b5290200 	strlt	r0, [r9, #-512]!	; 0xfffffe00
 770:	c0000001 	andgt	r0, r0, r1
 774:	00079803 	andeq	r9, r7, r3, lsl #16
 778:	b52a0200 	strlt	r0, [sl, #-512]!	; 0xfffffe00
 77c:	c4000001 	strgt	r0, [r0], #-1
 780:	00042b03 	andeq	r2, r4, r3, lsl #22
 784:	b52b0200 	strlt	r0, [fp, #-512]!	; 0xfffffe00
 788:	c8000001 	stmdagt	r0, {r0}
 78c:	00034a03 	andeq	r4, r3, r3, lsl #20
 790:	b52c0200 	strlt	r0, [ip, #-512]!	; 0xfffffe00
 794:	cc000001 	stcgt	0, cr0, [r0], {1}
 798:	07040400 	streq	r0, [r4, -r0, lsl #8]
 79c:	000002fe 	strdeq	r0, [r0], -lr
 7a0:	0001ae05 	andeq	sl, r1, r5, lsl #28
 7a4:	01d10600 	bicseq	r0, r1, r0, lsl #12
 7a8:	01ca0000 	biceq	r0, sl, r0
 7ac:	ca070000 	bgt	1c07b4 <shift+0x1c07b4>
 7b0:	03000001 	movweq	r0, #1
 7b4:	07040400 	streq	r0, [r4, -r0, lsl #8]
 7b8:	000001b9 			; <UNDEFINED> instruction: 0x000001b9
 7bc:	1e080104 	adfnee	f0, f0, f4
 7c0:	06000001 	streq	r0, [r0], -r1
 7c4:	000001d1 	ldrdeq	r0, [r0], -r1
 7c8:	000001e8 	andeq	r0, r0, r8, ror #3
 7cc:	0001ca07 	andeq	ip, r1, r7, lsl #20
 7d0:	08005300 	stmdaeq	r0, {r8, r9, ip, lr}
 7d4:	000007e5 	andeq	r0, r0, r5, ror #15
 7d8:	00252d02 	eoreq	r2, r5, r2, lsl #26
 7dc:	04090000 	streq	r0, [r9], #-0
 7e0:	000001ae 	andeq	r0, r0, lr, lsr #3
 7e4:	023c3002 	eorseq	r3, ip, #2
 7e8:	fd0a0000 	stc2	0, cr0, [sl, #-0]
 7ec:	00000001 	andeq	r0, r0, r1
 7f0:	0002540a 	andeq	r5, r2, sl, lsl #8
 7f4:	c70a0100 	strgt	r0, [sl, -r0, lsl #2]
 7f8:	02000001 	andeq	r0, r0, #1
 7fc:	0002630a 	andeq	r6, r2, sl, lsl #6
 800:	720a0300 	andvc	r0, sl, #0, 6
 804:	04000002 	streq	r0, [r0], #-2
 808:	0002810a 	andeq	r8, r2, sl, lsl #2
 80c:	900a0500 	andls	r0, sl, r0, lsl #10
 810:	06000002 	streq	r0, [r0], -r2
 814:	0001ed0a 	andeq	lr, r1, sl, lsl #26
 818:	9f0a0700 	svcls	0x000a0700
 81c:	08000002 	stmdaeq	r0, {r1}
 820:	0002ae0a 	andeq	sl, r2, sl, lsl #28
 824:	08000900 	stmdaeq	r0, {r8, fp}
 828:	00000233 	andeq	r0, r0, r3, lsr r2
 82c:	01f33b02 	mvnseq	r3, r2, lsl #22
 830:	24020000 	strcs	r0, [r2], #-0
 834:	02983d02 	addseq	r3, r8, #2, 26	; 0x80
 838:	4e030000 	cdpmi	0, 0, cr0, cr3, cr0, {0}
 83c:	02000002 	andeq	r0, r0, #2
 840:	0001ae3f 	andeq	sl, r1, pc, lsr lr
 844:	610b0000 	mrsvs	r0, (UNDEF: 11)
 848:	02006772 	andeq	r6, r0, #29884416	; 0x1c80000
 84c:	0001ae40 	andeq	sl, r1, r0, asr #28
 850:	2a030400 	bcs	c1858 <shift+0xc1858>
 854:	02000002 	andeq	r0, r0, #2
 858:	00029841 	andeq	r9, r2, r1, asr #16
 85c:	1c030800 	stcne	8, cr0, [r3], {-0}
 860:	02000002 	andeq	r0, r0, #2
 864:	00023c42 	andeq	r3, r2, r2, asr #24
 868:	0e031800 	cdpeq	8, 0, cr1, cr3, cr0, {0}
 86c:	02000002 	andeq	r0, r0, #2
 870:	0001ae43 	andeq	sl, r1, r3, asr #28
 874:	bd031c00 	stclt	12, cr1, [r3, #-0]
 878:	02000002 	andeq	r0, r0, #2
 87c:	0001ae44 	andeq	sl, r1, r4, asr #28
 880:	06002000 	streq	r2, [r0], -r0
 884:	000001ae 	andeq	r0, r0, lr, lsr #3
 888:	000002a8 	andeq	r0, r0, r8, lsr #5
 88c:	0001ca07 	andeq	ip, r1, r7, lsl #20
 890:	08000300 	stmdaeq	r0, {r8, r9}
 894:	000001d7 	ldrdeq	r0, [r0], -r7
 898:	02474502 	subeq	r4, r7, #8388608	; 0x800000
 89c:	d10c0000 	mrsle	r0, (UNDEF: 12)
 8a0:	01000004 	tsteq	r0, r4
 8a4:	0002c406 	andeq	ip, r2, r6, lsl #8
 8a8:	2c030500 	cfstr32cs	mvfx0, [r3], {-0}
 8ac:	0d801012 	stceq	0, cr1, [r0, #72]	; 0x48
 8b0:	0001b504 	andeq	fp, r1, r4, lsl #10
 8b4:	06ab0c00 	strteq	r0, [fp], r0, lsl #24
 8b8:	07010000 	streq	r0, [r1, -r0]
 8bc:	000002c4 	andeq	r0, r0, r4, asr #5
 8c0:	12300305 	eorsne	r0, r0, #335544320	; 0x14000000
 8c4:	120c8010 	andne	r8, ip, #16
 8c8:	01000005 	tsteq	r0, r5
 8cc:	0002c408 	andeq	ip, r2, r8, lsl #8
 8d0:	34030500 	strcc	r0, [r3], #-1280	; 0xfffffb00
 8d4:	0c801012 	stceq	0, cr1, [r0], {18}
 8d8:	00000533 	andeq	r0, r0, r3, lsr r5
 8dc:	02c40901 	sbceq	r0, r4, #16384	; 0x4000
 8e0:	03050000 	movweq	r0, #20480	; 0x5000
 8e4:	80101238 	andshi	r1, r0, r8, lsr r2
 8e8:	0005540c 	andeq	r5, r5, ip, lsl #8
 8ec:	c40a0100 	strgt	r0, [sl], #-256	; 0xffffff00
 8f0:	05000002 	streq	r0, [r0, #-2]
 8f4:	10123c03 	andsne	r3, r2, r3, lsl #24
 8f8:	05750c80 	ldrbeq	r0, [r5, #-3200]!	; 0xfffff380
 8fc:	0b010000 	bleq	40904 <shift+0x40904>
 900:	000002c4 	andeq	r0, r0, r4, asr #5
 904:	12400305 	subne	r0, r0, #335544320	; 0x14000000
 908:	960c8010 			; <UNDEFINED> instruction: 0x960c8010
 90c:	01000005 	tsteq	r0, r5
 910:	0002c40c 	andeq	ip, r2, ip, lsl #8
 914:	44030500 	strmi	r0, [r3], #-1280	; 0xfffffb00
 918:	0c801012 	stceq	0, cr1, [r0], {18}
 91c:	000005b7 			; <UNDEFINED> instruction: 0x000005b7
 920:	02c40d01 	sbceq	r0, r4, #1, 26	; 0x40
 924:	03050000 	movweq	r0, #20480	; 0x5000
 928:	80101248 	andshi	r1, r0, r8, asr #4
 92c:	0005d80c 	andeq	sp, r5, ip, lsl #16
 930:	c40e0100 	strgt	r0, [lr], #-256	; 0xffffff00
 934:	05000002 	streq	r0, [r0, #-2]
 938:	10124c03 	andsne	r4, r2, r3, lsl #24
 93c:	04f10c80 	ldrbteq	r0, [r1], #3200	; 0xc80
 940:	0f010000 	svceq	0x00010000
 944:	000002c4 	andeq	r0, r0, r4, asr #5
 948:	12500305 	subsne	r0, r0, #335544320	; 0x14000000
 94c:	360c8010 			; <UNDEFINED> instruction: 0x360c8010
 950:	01000004 	tsteq	r0, r4
 954:	0002c410 	andeq	ip, r2, r0, lsl r4
 958:	54030500 	strpl	r0, [r3], #-1280	; 0xfffffb00
 95c:	0c801012 	stceq	0, cr1, [r0], {18}
 960:	0000038a 	andeq	r0, r0, sl, lsl #7
 964:	02c41201 	sbceq	r1, r4, #268435456	; 0x10000000
 968:	03050000 	movweq	r0, #20480	; 0x5000
 96c:	80101258 	andshi	r1, r0, r8, asr r2
 970:	0008650c 	andeq	r6, r8, ip, lsl #10
 974:	c4130100 	ldrgt	r0, [r3], #-256	; 0xffffff00
 978:	05000002 	streq	r0, [r0, #-2]
 97c:	10125c03 	andsne	r5, r2, r3, lsl #24
 980:	04a20c80 	strteq	r0, [r2], #3200	; 0xc80
 984:	14010000 	strne	r0, [r1], #-0
 988:	000002c4 	andeq	r0, r0, r4, asr #5
 98c:	12600305 	rsbne	r0, r0, #335544320	; 0x14000000
 990:	a90c8010 	stmdbge	ip, {r4, pc}
 994:	01000003 	tsteq	r0, r3
 998:	0002c415 	andeq	ip, r2, r5, lsl r4
 99c:	64030500 	strvs	r0, [r3], #-1280	; 0xfffffb00
 9a0:	0c801012 	stceq	0, cr1, [r0], {18}
 9a4:	0000063b 	andeq	r0, r0, fp, lsr r6
 9a8:	02c41601 	sbceq	r1, r4, #1048576	; 0x100000
 9ac:	03050000 	movweq	r0, #20480	; 0x5000
 9b0:	80101268 	andshi	r1, r0, r8, ror #4
 9b4:	0003ca0c 	andeq	ip, r3, ip, lsl #20
 9b8:	c4170100 	ldrgt	r0, [r7], #-256	; 0xffffff00
 9bc:	05000002 	streq	r0, [r0, #-2]
 9c0:	10126c03 	andsne	r6, r2, r3, lsl #24
 9c4:	03f70c80 	mvnseq	r0, #128, 24	; 0x8000
 9c8:	18010000 	stmdane	r1, {}	; <UNPREDICTABLE>
 9cc:	000002c4 	andeq	r0, r0, r4, asr #5
 9d0:	12700305 	rsbsne	r0, r0, #335544320	; 0x14000000
 9d4:	560c8010 			; <UNDEFINED> instruction: 0x560c8010
 9d8:	01000003 	tsteq	r0, r3
 9dc:	0002c419 	andeq	ip, r2, r9, lsl r4
 9e0:	74030500 	strvc	r0, [r3], #-1280	; 0xfffffb00
 9e4:	0c801012 	stceq	0, cr1, [r0], {18}
 9e8:	000008a2 	andeq	r0, r0, r2, lsr #17
 9ec:	02c41a01 	sbceq	r1, r4, #4096	; 0x1000
 9f0:	03050000 	movweq	r0, #20480	; 0x5000
 9f4:	80101278 	andshi	r1, r0, r8, ror r2
 9f8:	0004610c 	andeq	r6, r4, ip, lsl #2
 9fc:	c41b0100 	ldrgt	r0, [fp], #-256	; 0xffffff00
 a00:	05000002 	streq	r0, [r0, #-2]
 a04:	10127c03 	andsne	r7, r2, r3, lsl #24
 a08:	08f90c80 	ldmeq	r9!, {r7, sl, fp}^
 a0c:	1d010000 	stcne	0, cr0, [r1, #-0]
 a10:	000002c4 	andeq	r0, r0, r4, asr #5
 a14:	12800305 	addne	r0, r0, #335544320	; 0x14000000
 a18:	820c8010 	andhi	r8, ip, #16
 a1c:	01000004 	tsteq	r0, r4
 a20:	0002c41e 	andeq	ip, r2, lr, lsl r4
 a24:	84030500 	strhi	r0, [r3], #-1280	; 0xfffffb00
 a28:	0c801012 	stceq	0, cr1, [r0], {18}
 a2c:	000007c3 	andeq	r0, r0, r3, asr #15
 a30:	02c41f01 	sbceq	r1, r4, #1, 30
 a34:	03050000 	movweq	r0, #20480	; 0x5000
 a38:	80101288 	andshi	r1, r0, r8, lsl #5
 a3c:	0006cb0c 	andeq	ip, r6, ip, lsl #22
 a40:	c4200100 	strtgt	r0, [r0], #-256	; 0xffffff00
 a44:	05000002 	streq	r0, [r0, #-2]
 a48:	10128c03 	andsne	r8, r2, r3, lsl #24
 a4c:	07a10c80 	streq	r0, [r1, r0, lsl #25]!
 a50:	21010000 	mrscs	r0, (UNDEF: 1)
 a54:	000002c4 	andeq	r0, r0, r4, asr #5
 a58:	12900305 	addsne	r0, r0, #335544320	; 0x14000000
 a5c:	fb0c8010 	blx	320aa6 <shift+0x320aa6>
 a60:	01000006 	tsteq	r0, r6
 a64:	0002c422 	andeq	ip, r2, r2, lsr #8
 a68:	94030500 	strls	r0, [r3], #-1280	; 0xfffffb00
 a6c:	0c801012 	stceq	0, cr1, [r0], {18}
 a70:	0000071d 	andeq	r0, r0, sp, lsl r7
 a74:	02c42301 	sbceq	r2, r4, #67108864	; 0x4000000
 a78:	03050000 	movweq	r0, #20480	; 0x5000
 a7c:	80101298 	mulshi	r0, r8, r2
 a80:	00073f0c 	andeq	r3, r7, ip, lsl #30
 a84:	c4240100 	strtgt	r0, [r4], #-256	; 0xffffff00
 a88:	05000002 	streq	r0, [r0, #-2]
 a8c:	10129c03 	andsne	r9, r2, r3, lsl #24
 a90:	08430c80 	stmdaeq	r3, {r7, sl, fp}^
 a94:	25010000 	strcs	r0, [r1, #-0]
 a98:	000002c4 	andeq	r0, r0, r4, asr #5
 a9c:	12a00305 	adcne	r0, r0, #335544320	; 0x14000000
 aa0:	760c8010 			; <UNDEFINED> instruction: 0x760c8010
 aa4:	01000007 	tsteq	r0, r7
 aa8:	0002c426 	andeq	ip, r2, r6, lsr #8
 aac:	a4030500 	strge	r0, [r3], #-1280	; 0xfffffb00
 ab0:	0c801012 	stceq	0, cr1, [r0], {18}
 ab4:	00000680 	andeq	r0, r0, r0, lsl #13
 ab8:	02c42801 	sbceq	r2, r4, #65536	; 0x10000
 abc:	03050000 	movweq	r0, #20480	; 0x5000
 ac0:	801012a8 	andshi	r1, r0, r8, lsr #5
 ac4:	0008020e 	andeq	r0, r8, lr, lsl #4
 ac8:	ea2b0100 	b	ac0ed0 <shift+0xac0ed0>
 acc:	05000004 	streq	r0, [r0, #-4]
 ad0:	10122003 	andsne	r2, r2, r3
 ad4:	e8040d80 	stmda	r4, {r7, r8, sl, fp}
 ad8:	0f000001 	svceq	0x00000001
 adc:	000008ce 	andeq	r0, r0, lr, asr #17
 ae0:	60013101 	andvs	r3, r1, r1, lsl #2
 ae4:	ba80100d 	blt	fe004b20 <__bss_end+0x7df03874>
 ae8:	01000000 	mrseq	r0, (UNDEF: 0)
 aec:	0005239c 	muleq	r5, ip, r3
 af0:	01e51000 	mvneq	r1, r0
 af4:	31010000 	mrscc	r0, (UNDEF: 1)
 af8:	00052301 	andeq	r2, r5, r1, lsl #6
 afc:	6c910200 	lfmvs	f0, 4, [r1], {0}
 b00:	01006911 	tsteq	r0, r1, lsl r9
 b04:	01ae0133 			; <UNDEFINED> instruction: 0x01ae0133
 b08:	91020000 	mrsls	r0, (UNDEF: 2)
 b0c:	040d0074 	streq	r0, [sp], #-116	; 0xffffff8c
 b10:	000002a8 	andeq	r0, r0, r8, lsr #5
 b14:	00081812 	andeq	r1, r8, r2, lsl r8
 b18:	48f60100 	ldmmi	r6!, {r8}^
 b1c:	1880100c 	stmne	r0, {r2, r3, ip}
 b20:	01000001 	tsteq	r0, r1
 b24:	00054d9c 	muleq	r5, ip, sp
 b28:	01e51300 	mvneq	r1, r0, lsl #6
 b2c:	f6010000 			; <UNDEFINED> instruction: 0xf6010000
 b30:	00000523 	andeq	r0, r0, r3, lsr #10
 b34:	00749102 	rsbseq	r9, r4, r2, lsl #2
 b38:	0007f614 	andeq	pc, r7, r4, lsl r6	; <UNPREDICTABLE>
 b3c:	d1dc0100 	bicsle	r0, ip, r0, lsl #2
 b40:	e4000001 	str	r0, [r0], #-1
 b44:	6480100b 	strvs	r1, [r0], #11
 b48:	01000000 	mrseq	r0, (UNDEF: 0)
 b4c:	0005839c 	muleq	r5, ip, r3
 b50:	083e1300 	ldmdaeq	lr!, {r8, r9, ip}
 b54:	dc010000 	stcle	0, cr0, [r1], {-0}
 b58:	000001ae 	andeq	r0, r0, lr, lsr #3
 b5c:	13749102 	cmnne	r4, #-2147483648	; 0x80000000
 b60:	000008e1 	andeq	r0, r0, r1, ror #17
 b64:	01aedc01 			; <UNDEFINED> instruction: 0x01aedc01
 b68:	91020000 	mrsls	r0, (UNDEF: 2)
 b6c:	c3150070 	tstgt	r5, #112	; 0x70
 b70:	01000008 	tsteq	r0, r8
 b74:	100a2e90 	mulne	sl, r0, lr
 b78:	0001b680 	andeq	fp, r1, r0, lsl #13
 b7c:	169c0100 	ldrne	r0, [ip], r0, lsl #2
 b80:	0000068a 	andeq	r0, r0, sl, lsl #13
 b84:	06043b01 	streq	r3, [r4], -r1, lsl #22
 b88:	042a8010 	strteq	r8, [sl], #-16
 b8c:	9c010000 	stcls	0, cr0, [r1], {-0}
 b90:	0001bb00 	andeq	fp, r1, r0, lsl #22
 b94:	7f000200 	svcvc	0x00000200
 b98:	04000004 	streq	r0, [r0], #-4
 b9c:	0002c001 	andeq	ip, r2, r1
 ba0:	100e2000 	andne	r2, lr, r0
 ba4:	10109680 	andsne	r9, r0, r0, lsl #13
 ba8:	6f682f80 	svcvs	0x00682f80
 bac:	742f656d 	strtvc	r6, [pc], #-1389	; bb4 <shift+0xbb4>
 bb0:	2d677763 	stclcs	7, cr7, [r7, #-396]!	; 0xfffffe74
 bb4:	6c697562 	cfstr64vs	mvdx7, [r9], #-392	; 0xfffffe78
 bb8:	616c7364 	cmnvs	ip, r4, ror #6
 bbc:	772f6576 			; <UNDEFINED> instruction: 0x772f6576
 bc0:	736b726f 	cmnvc	fp, #-268435450	; 0xf0000006
 bc4:	65636170 	strbvs	r6, [r3, #-368]!	; 0xfffffe90
 bc8:	7763742f 	strbvc	r7, [r3, -pc, lsr #8]!
 bcc:	616d2d67 	cmnvs	sp, r7, ror #26
 bd0:	722d656b 	eorvc	r6, sp, #448790528	; 0x1ac00000
 bd4:	61656c65 	cmnvs	r5, r5, ror #24
 bd8:	6c2f6573 	cfstr32vs	mvfx6, [pc], #-460	; a14 <shift+0xa14>
 bdc:	6c656261 	sfmvs	f6, 2, [r5], #-388	; 0xfffffe7c
 be0:	636f642f 	cmnvs	pc, #788529152	; 0x2f000000
 be4:	2d72656b 	cfldr64cs	mvdx6, [r2, #-428]!	; 0xfffffe54
 be8:	73757274 	cmnvc	r5, #116, 4	; 0x40000007
 bec:	612d7974 			; <UNDEFINED> instruction: 0x612d7974
 bf0:	3436646d 	ldrtcc	r6, [r6], #-1133	; 0xfffffb93
 bf4:	7763742d 	strbvc	r7, [r3, -sp, lsr #8]!
 bf8:	75622d67 	strbvc	r2, [r2, #-3431]!	; 0xfffff299
 bfc:	2f646c69 	svccs	0x00646c69
 c00:	67726174 			; <UNDEFINED> instruction: 0x67726174
 c04:	612f7465 			; <UNDEFINED> instruction: 0x612f7465
 c08:	6c2d6d72 	stcvs	13, cr6, [sp], #-456	; 0xfffffe38
 c0c:	78756e69 	ldmdavc	r5!, {r0, r3, r5, r6, r9, sl, fp, sp, lr}^
 c10:	756e672d 	strbvc	r6, [lr, #-1837]!	; 0xfffff8d3
 c14:	69626165 	stmdbvs	r2!, {r0, r2, r5, r6, r8, sp, lr}^
 c18:	732f6668 			; <UNDEFINED> instruction: 0x732f6668
 c1c:	7370616e 	cmnvc	r0, #-2147483621	; 0x8000001b
 c20:	73746f68 	cmnvc	r4, #104, 30	; 0x1a0
 c24:	6363672f 	cmnvs	r3, #12320768	; 0xbc0000
 c28:	6e696c2d 	cdpvs	12, 6, cr6, cr9, cr13, {1}
 c2c:	2d6f7261 	sfmcs	f7, 2, [pc, #-388]!	; ab0 <shift+0xab0>
 c30:	2d322e36 	ldccs	14, cr2, [r2, #-216]!	; 0xffffff28
 c34:	36313032 			; <UNDEFINED> instruction: 0x36313032
 c38:	2f31312e 	svccs	0x0031312e
 c3c:	6762696c 	strbvs	r6, [r2, -ip, ror #18]!
 c40:	632f6363 			; <UNDEFINED> instruction: 0x632f6363
 c44:	69666e6f 	stmdbvs	r6!, {r0, r1, r2, r3, r5, r6, r9, sl, fp, sp, lr}^
 c48:	72612f67 	rsbvc	r2, r1, #412	; 0x19c
 c4c:	696c2f6d 	stmdbvs	ip!, {r0, r2, r3, r5, r6, r8, r9, sl, fp, sp}^
 c50:	75663162 	strbvc	r3, [r6, #-354]!	; 0xfffffe9e
 c54:	2e73636e 	cdpcs	3, 7, cr6, cr3, cr14, {3}
 c58:	682f0053 	stmdavs	pc!, {r0, r1, r4, r6}	; <UNPREDICTABLE>
 c5c:	2f656d6f 	svccs	0x00656d6f
 c60:	67776374 			; <UNDEFINED> instruction: 0x67776374
 c64:	6975622d 	ldmdbvs	r5!, {r0, r2, r3, r5, r9, sp, lr}^
 c68:	6c73646c 	cfldrdvs	mvd6, [r3], #-432	; 0xfffffe50
 c6c:	2f657661 	svccs	0x00657661
 c70:	6b726f77 	blvs	1c9ca54 <shift+0x1c9ca54>
 c74:	63617073 	cmnvs	r1, #115	; 0x73
 c78:	63742f65 	cmnvs	r4, #404	; 0x194
 c7c:	6d2d6777 	stcvs	7, cr6, [sp, #-476]!	; 0xfffffe24
 c80:	2d656b61 	fstmdbxcs	r5!, {d22-d69}	;@ Deprecated
 c84:	656c6572 	strbvs	r6, [ip, #-1394]!	; 0xfffffa8e
 c88:	2f657361 	svccs	0x00657361
 c8c:	6562616c 	strbvs	r6, [r2, #-364]!	; 0xfffffe94
 c90:	6f642f6c 	svcvs	0x00642f6c
 c94:	72656b63 	rsbvc	r6, r5, #101376	; 0x18c00
 c98:	7572742d 	ldrbvc	r7, [r2, #-1069]!	; 0xfffffbd3
 c9c:	2d797473 	cfldrdcs	mvd7, [r9, #-460]!	; 0xfffffe34
 ca0:	36646d61 	strbtcc	r6, [r4], -r1, ror #26
 ca4:	63742d34 	cmnvs	r4, #52, 26	; 0xd00
 ca8:	622d6777 	eorvs	r6, sp, #31195136	; 0x1dc0000
 cac:	646c6975 	strbtvs	r6, [ip], #-2421	; 0xfffff68b
 cb0:	7261742f 	rsbvc	r7, r1, #788529152	; 0x2f000000
 cb4:	2f746567 	svccs	0x00746567
 cb8:	2d6d7261 	sfmcs	f7, 2, [sp, #-388]!	; 0xfffffe7c
 cbc:	756e696c 	strbvc	r6, [lr, #-2412]!	; 0xfffff694
 cc0:	6e672d78 	mcrvs	13, 3, r2, cr7, cr8, {3}
 cc4:	62616575 	rsbvs	r6, r1, #490733568	; 0x1d400000
 cc8:	2f666869 	svccs	0x00666869
 ccc:	6975625f 	ldmdbvs	r5!, {r0, r1, r2, r3, r4, r6, r9, sp, lr}^
 cd0:	622f646c 	eorvs	r6, pc, #108, 8	; 0x6c000000
 cd4:	646c6975 	strbtvs	r6, [ip], #-2421	; 0xfffff68b
 cd8:	38782f73 	ldmdacc	r8!, {r0, r1, r4, r5, r6, r8, r9, sl, fp, sp}^
 cdc:	34365f36 	ldrtcc	r5, [r6], #-3894	; 0xfffff0ca
 ce0:	6b6e752d 	blvs	1b9e19c <shift+0x1b9e19c>
 ce4:	6e776f6e 	cdpvs	15, 7, cr6, cr7, cr14, {3}
 ce8:	6e696c2d 	cdpvs	12, 6, cr6, cr9, cr13, {1}
 cec:	672d7875 			; <UNDEFINED> instruction: 0x672d7875
 cf0:	612f756e 			; <UNDEFINED> instruction: 0x612f756e
 cf4:	6c2d6d72 	stcvs	13, cr6, [sp], #-456	; 0xfffffe38
 cf8:	78756e69 	ldmdavc	r5!, {r0, r3, r5, r6, r9, sl, fp, sp, lr}^
 cfc:	756e672d 	strbvc	r6, [lr, #-1837]!	; 0xfffff8d3
 d00:	69626165 	stmdbvs	r2!, {r0, r2, r5, r6, r8, sp, lr}^
 d04:	672f6668 	strvs	r6, [pc, -r8, ror #12]!
 d08:	6c2d6363 	stcvs	3, cr6, [sp], #-396	; 0xfffffe74
 d0c:	72616e69 	rsbvc	r6, r1, #1680	; 0x690
 d10:	2e362d6f 	cdpcs	13, 3, cr2, cr6, cr15, {3}
 d14:	30322d32 	eorscc	r2, r2, r2, lsr sp
 d18:	312e3631 			; <UNDEFINED> instruction: 0x312e3631
 d1c:	74732d31 	ldrbtvc	r2, [r3], #-3377	; 0xfffff2cf
 d20:	32656761 	rsbcc	r6, r5, #25427968	; 0x1840000
 d24:	6d72612f 	ldfvse	f6, [r2, #-188]!	; 0xffffff44
 d28:	6e696c2d 	cdpvs	12, 6, cr6, cr9, cr13, {1}
 d2c:	672d7875 			; <UNDEFINED> instruction: 0x672d7875
 d30:	6165756e 	cmnvs	r5, lr, ror #10
 d34:	66686962 	strbtvs	r6, [r8], -r2, ror #18
 d38:	62696c2f 	rsbvs	r6, r9, #12032	; 0x2f00
 d3c:	00636367 	rsbeq	r6, r3, r7, ror #6
 d40:	20554e47 	subscs	r4, r5, r7, asr #28
 d44:	32205341 	eorcc	r5, r0, #67108865	; 0x4000001
 d48:	2e37322e 	cdpcs	2, 3, cr3, cr7, cr14, {1}
 d4c:	80010030 	andhi	r0, r1, r0, lsr r0
 d50:	000001bb 			; <UNDEFINED> instruction: 0x000001bb
 d54:	04930002 	ldreq	r0, [r3], #2
 d58:	01040000 	mrseq	r0, (UNDEF: 4)
 d5c:	000003c0 	andeq	r0, r0, r0, asr #7
 d60:	80101098 	mulshi	r0, r8, r0
 d64:	801010a4 	andshi	r1, r0, r4, lsr #1
 d68:	6d6f682f 	stclvs	8, cr6, [pc, #-188]!	; cb4 <shift+0xcb4>
 d6c:	63742f65 	cmnvs	r4, #404	; 0x194
 d70:	622d6777 	eorvs	r6, sp, #31195136	; 0x1dc0000
 d74:	646c6975 	strbtvs	r6, [ip], #-2421	; 0xfffff68b
 d78:	76616c73 			; <UNDEFINED> instruction: 0x76616c73
 d7c:	6f772f65 	svcvs	0x00772f65
 d80:	70736b72 	rsbsvc	r6, r3, r2, ror fp
 d84:	2f656361 	svccs	0x00656361
 d88:	67776374 			; <UNDEFINED> instruction: 0x67776374
 d8c:	6b616d2d 	blvs	185c248 <shift+0x185c248>
 d90:	65722d65 	ldrbvs	r2, [r2, #-3429]!	; 0xfffff29b
 d94:	7361656c 	cmnvc	r1, #108, 10	; 0x1b000000
 d98:	616c2f65 	cmnvs	ip, r5, ror #30
 d9c:	2f6c6562 	svccs	0x006c6562
 da0:	6b636f64 	blvs	18dcb38 <shift+0x18dcb38>
 da4:	742d7265 	strtvc	r7, [sp], #-613	; 0xfffffd9b
 da8:	74737572 	ldrbtvc	r7, [r3], #-1394	; 0xfffffa8e
 dac:	6d612d79 	stclvs	13, cr2, [r1, #-484]!	; 0xfffffe1c
 db0:	2d343664 	ldccs	6, cr3, [r4, #-400]!	; 0xfffffe70
 db4:	67776374 			; <UNDEFINED> instruction: 0x67776374
 db8:	6975622d 	ldmdbvs	r5!, {r0, r2, r3, r5, r9, sp, lr}^
 dbc:	742f646c 	strtvc	r6, [pc], #-1132	; dc4 <shift+0xdc4>
 dc0:	65677261 	strbvs	r7, [r7, #-609]!	; 0xfffffd9f
 dc4:	72612f74 	rsbvc	r2, r1, #116, 30	; 0x1d0
 dc8:	696c2d6d 	stmdbvs	ip!, {r0, r2, r3, r5, r6, r8, sl, fp, sp}^
 dcc:	2d78756e 	cfldr64cs	mvdx7, [r8, #-440]!	; 0xfffffe48
 dd0:	65756e67 	ldrbvs	r6, [r5, #-3687]!	; 0xfffff199
 dd4:	68696261 	stmdavs	r9!, {r0, r5, r6, r9, sp, lr}^
 dd8:	6e732f66 	cdpvs	15, 7, cr2, cr3, cr6, {3}
 ddc:	68737061 	ldmdavs	r3!, {r0, r5, r6, ip, sp, lr}^
 de0:	2f73746f 	svccs	0x0073746f
 de4:	2d636367 	stclcs	3, cr6, [r3, #-412]!	; 0xfffffe64
 de8:	616e696c 	cmnvs	lr, ip, ror #18
 dec:	362d6f72 	qsub16cc	r6, sp, r2
 df0:	322d322e 	eorcc	r3, sp, #-536870910	; 0xe0000002
 df4:	2e363130 	mrccs	1, 1, r3, cr6, cr0, {1}
 df8:	6c2f3131 	stfvss	f3, [pc], #-196	; d3c <shift+0xd3c>
 dfc:	63676269 	cmnvs	r7, #-1879048186	; 0x90000006
 e00:	6f632f63 	svcvs	0x00632f63
 e04:	6769666e 	strbvs	r6, [r9, -lr, ror #12]!
 e08:	6d72612f 	ldfvse	f6, [r2, #-188]!	; 0xffffff44
 e0c:	62696c2f 	rsbvs	r6, r9, #12032	; 0x2f00
 e10:	6e756631 	mrcvs	6, 3, r6, cr5, cr1, {1}
 e14:	532e7363 			; <UNDEFINED> instruction: 0x532e7363
 e18:	6f682f00 	svcvs	0x00682f00
 e1c:	742f656d 	strtvc	r6, [pc], #-1389	; e24 <shift+0xe24>
 e20:	2d677763 	stclcs	7, cr7, [r7, #-396]!	; 0xfffffe74
 e24:	6c697562 	cfstr64vs	mvdx7, [r9], #-392	; 0xfffffe78
 e28:	616c7364 	cmnvs	ip, r4, ror #6
 e2c:	772f6576 			; <UNDEFINED> instruction: 0x772f6576
 e30:	736b726f 	cmnvc	fp, #-268435450	; 0xf0000006
 e34:	65636170 	strbvs	r6, [r3, #-368]!	; 0xfffffe90
 e38:	7763742f 	strbvc	r7, [r3, -pc, lsr #8]!
 e3c:	616d2d67 	cmnvs	sp, r7, ror #26
 e40:	722d656b 	eorvc	r6, sp, #448790528	; 0x1ac00000
 e44:	61656c65 	cmnvs	r5, r5, ror #24
 e48:	6c2f6573 	cfstr32vs	mvfx6, [pc], #-460	; c84 <shift+0xc84>
 e4c:	6c656261 	sfmvs	f6, 2, [r5], #-388	; 0xfffffe7c
 e50:	636f642f 	cmnvs	pc, #788529152	; 0x2f000000
 e54:	2d72656b 	cfldr64cs	mvdx6, [r2, #-428]!	; 0xfffffe54
 e58:	73757274 	cmnvc	r5, #116, 4	; 0x40000007
 e5c:	612d7974 			; <UNDEFINED> instruction: 0x612d7974
 e60:	3436646d 	ldrtcc	r6, [r6], #-1133	; 0xfffffb93
 e64:	7763742d 	strbvc	r7, [r3, -sp, lsr #8]!
 e68:	75622d67 	strbvc	r2, [r2, #-3431]!	; 0xfffff299
 e6c:	2f646c69 	svccs	0x00646c69
 e70:	67726174 			; <UNDEFINED> instruction: 0x67726174
 e74:	612f7465 			; <UNDEFINED> instruction: 0x612f7465
 e78:	6c2d6d72 	stcvs	13, cr6, [sp], #-456	; 0xfffffe38
 e7c:	78756e69 	ldmdavc	r5!, {r0, r3, r5, r6, r9, sl, fp, sp, lr}^
 e80:	756e672d 	strbvc	r6, [lr, #-1837]!	; 0xfffff8d3
 e84:	69626165 	stmdbvs	r2!, {r0, r2, r5, r6, r8, sp, lr}^
 e88:	5f2f6668 	svcpl	0x002f6668
 e8c:	6c697562 	cfstr64vs	mvdx7, [r9], #-392	; 0xfffffe78
 e90:	75622f64 	strbvc	r2, [r2, #-3940]!	; 0xfffff09c
 e94:	73646c69 	cmnvc	r4, #26880	; 0x6900
 e98:	3638782f 	ldrtcc	r7, [r8], -pc, lsr #16
 e9c:	2d34365f 	ldccs	6, cr3, [r4, #-380]!	; 0xfffffe84
 ea0:	6e6b6e75 	mcrvs	14, 3, r6, cr11, cr5, {3}
 ea4:	2d6e776f 	stclcs	7, cr7, [lr, #-444]!	; 0xfffffe44
 ea8:	756e696c 	strbvc	r6, [lr, #-2412]!	; 0xfffff694
 eac:	6e672d78 	mcrvs	13, 3, r2, cr7, cr8, {3}
 eb0:	72612f75 	rsbvc	r2, r1, #468	; 0x1d4
 eb4:	696c2d6d 	stmdbvs	ip!, {r0, r2, r3, r5, r6, r8, sl, fp, sp}^
 eb8:	2d78756e 	cfldr64cs	mvdx7, [r8, #-440]!	; 0xfffffe48
 ebc:	65756e67 	ldrbvs	r6, [r5, #-3687]!	; 0xfffff199
 ec0:	68696261 	stmdavs	r9!, {r0, r5, r6, r9, sp, lr}^
 ec4:	63672f66 	cmnvs	r7, #408	; 0x198
 ec8:	696c2d63 	stmdbvs	ip!, {r0, r1, r5, r6, r8, sl, fp, sp}^
 ecc:	6f72616e 	svcvs	0x0072616e
 ed0:	322e362d 	eorcc	r3, lr, #47185920	; 0x2d00000
 ed4:	3130322d 	teqcc	r0, sp, lsr #4
 ed8:	31312e36 	teqcc	r1, r6, lsr lr
 edc:	6174732d 	cmnvs	r4, sp, lsr #6
 ee0:	2f326567 	svccs	0x00326567
 ee4:	2d6d7261 	sfmcs	f7, 2, [sp, #-388]!	; 0xfffffe7c
 ee8:	756e696c 	strbvc	r6, [lr, #-2412]!	; 0xfffff694
 eec:	6e672d78 	mcrvs	13, 3, r2, cr7, cr8, {3}
 ef0:	62616575 	rsbvs	r6, r1, #490733568	; 0x1d400000
 ef4:	2f666869 	svccs	0x00666869
 ef8:	6762696c 	strbvs	r6, [r2, -ip, ror #18]!
 efc:	47006363 	strmi	r6, [r0, -r3, ror #6]
 f00:	4120554e 			; <UNDEFINED> instruction: 0x4120554e
 f04:	2e322053 	mrccs	0, 1, r2, cr2, cr3, {2}
 f08:	302e3732 	eorcc	r3, lr, r2, lsr r7
 f0c:	Address 0x0000000000000f0c is out of bounds.


Disassembly of section .debug_abbrev:

00000000 <.debug_abbrev>:
   0:	10001101 	andne	r1, r0, r1, lsl #2
   4:	12011106 	andne	r1, r1, #-2147483647	; 0x80000001
   8:	1b080301 	blne	200c14 <shift+0x200c14>
   c:	13082508 	movwne	r2, #34056	; 0x8508
  10:	00000005 	andeq	r0, r0, r5
  14:	25011101 	strcs	r1, [r1, #-257]	; 0xfffffeff
  18:	030b130e 	movweq	r1, #45838	; 0xb30e
  1c:	110e1b0e 	tstne	lr, lr, lsl #22
  20:	10061201 	andne	r1, r6, r1, lsl #4
  24:	02000017 	andeq	r0, r0, #23
  28:	0b0b0113 	bleq	2c047c <shift+0x2c047c>
  2c:	0b3b0b3a 	bleq	ec2d1c <shift+0xec2d1c>
  30:	00001301 	andeq	r1, r0, r1, lsl #6
  34:	03000d03 	movweq	r0, #3331	; 0xd03
  38:	3b0b3a0e 	blcc	2ce878 <shift+0x2ce878>
  3c:	3813490b 	ldmdacc	r3, {r0, r1, r3, r8, fp, lr}
  40:	0400000b 	streq	r0, [r0], #-11
  44:	0803000d 	stmdaeq	r3, {r0, r2, r3}
  48:	0b3b0b3a 	bleq	ec2d38 <shift+0xec2d38>
  4c:	0b381349 	bleq	e04d78 <shift+0xe04d78>
  50:	24050000 	strcs	r0, [r5], #-0
  54:	3e0b0b00 	vmlacc.f64	d0, d11, d0
  58:	000e030b 	andeq	r0, lr, fp, lsl #6
  5c:	00350600 	eorseq	r0, r5, r0, lsl #12
  60:	00001349 	andeq	r1, r0, r9, asr #6
  64:	49010107 	stmdbmi	r1, {r0, r1, r2, r8}
  68:	00130113 	andseq	r0, r3, r3, lsl r1
  6c:	00210800 	eoreq	r0, r1, r0, lsl #16
  70:	0b2f1349 	bleq	bc4d9c <shift+0xbc4d9c>
  74:	16090000 	strne	r0, [r9], -r0
  78:	3a0e0300 	bcc	380c80 <shift+0x380c80>
  7c:	490b3b0b 	stmdbmi	fp, {r0, r1, r3, r8, r9, fp, ip, sp}
  80:	0a000013 	beq	d4 <shift+0xd4>
  84:	0e030034 	mcreq	0, 0, r0, cr3, cr4, {1}
  88:	0b3b0b3a 	bleq	ec2d78 <shift+0xec2d78>
  8c:	18021349 	stmdane	r2, {r0, r3, r6, r8, r9, ip}
  90:	0f0b0000 	svceq	0x000b0000
  94:	490b0b00 	stmdbmi	fp, {r8, r9, fp}
  98:	0c000013 	stceq	0, cr0, [r0], {19}
  9c:	193f012e 	ldmdbne	pc!, {r1, r2, r3, r5, r8}	; <UNPREDICTABLE>
  a0:	0b3a0e03 	bleq	e838b4 <shift+0xe838b4>
  a4:	19270b3b 	stmdbne	r7!, {r0, r1, r3, r4, r5, r8, r9, fp}
  a8:	01111349 	tsteq	r1, r9, asr #6
  ac:	18400612 	stmdane	r0, {r1, r4, r9, sl}^
  b0:	01194297 			; <UNDEFINED> instruction: 0x01194297
  b4:	0d000013 	stceq	0, cr0, [r0, #-76]	; 0xffffffb4
  b8:	0e030005 	cdpeq	0, 0, cr0, cr3, cr5, {0}
  bc:	0b3b0b3a 	bleq	ec2dac <shift+0xec2dac>
  c0:	18021349 	stmdane	r2, {r0, r3, r6, r8, r9, ip}
  c4:	240e0000 	strcs	r0, [lr], #-0
  c8:	3e0b0b00 	vmlacc.f64	d0, d11, d0
  cc:	0008030b 	andeq	r0, r8, fp, lsl #6
  d0:	012e0f00 			; <UNDEFINED> instruction: 0x012e0f00
  d4:	0e03193f 			; <UNDEFINED> instruction: 0x0e03193f
  d8:	0b3b0b3a 	bleq	ec2dc8 <shift+0xec2dc8>
  dc:	01111927 	tsteq	r1, r7, lsr #18
  e0:	18400612 	stmdane	r0, {r1, r4, r9, sl}^
  e4:	01194296 			; <UNDEFINED> instruction: 0x01194296
  e8:	10000013 	andne	r0, r0, r3, lsl r0
  ec:	08030005 	stmdaeq	r3, {r0, r2}
  f0:	0b3b0b3a 	bleq	ec2de0 <shift+0xec2de0>
  f4:	18021349 	stmdane	r2, {r0, r3, r6, r8, r9, ip}
  f8:	26110000 	ldrcs	r0, [r1], -r0
  fc:	00134900 	andseq	r4, r3, r0, lsl #18
 100:	002e1200 	eoreq	r1, lr, r0, lsl #4
 104:	0e03193f 			; <UNDEFINED> instruction: 0x0e03193f
 108:	0b3b0b3a 	bleq	ec2df8 <shift+0xec2df8>
 10c:	13491927 	movtne	r1, #39207	; 0x9927
 110:	06120111 			; <UNDEFINED> instruction: 0x06120111
 114:	42971840 	addsmi	r1, r7, #64, 16	; 0x400000
 118:	13000019 	movwne	r0, #25
 11c:	193f012e 	ldmdbne	pc!, {r1, r2, r3, r5, r8}	; <UNPREDICTABLE>
 120:	0b3a0e03 	bleq	e83934 <shift+0xe83934>
 124:	19270b3b 	stmdbne	r7!, {r0, r1, r3, r4, r5, r8, r9, fp}
 128:	06120111 			; <UNDEFINED> instruction: 0x06120111
 12c:	42971840 	addsmi	r1, r7, #64, 16	; 0x400000
 130:	00130119 	andseq	r0, r3, r9, lsl r1
 134:	002e1400 	eoreq	r1, lr, r0, lsl #8
 138:	0e03193f 			; <UNDEFINED> instruction: 0x0e03193f
 13c:	0b3b0b3a 	bleq	ec2e2c <shift+0xec2e2c>
 140:	01111927 	tsteq	r1, r7, lsr #18
 144:	18400612 	stmdane	r0, {r1, r4, r9, sl}^
 148:	00194297 	mulseq	r9, r7, r2
 14c:	11010000 	mrsne	r0, (UNDEF: 1)
 150:	130e2501 	movwne	r2, #58625	; 0xe501
 154:	1b0e030b 	blne	380d88 <shift+0x380d88>
 158:	1201110e 	andne	r1, r1, #-2147483645	; 0x80000003
 15c:	00171006 	andseq	r1, r7, r6
 160:	00240200 	eoreq	r0, r4, r0, lsl #4
 164:	0b3e0b0b 	bleq	f82d98 <shift+0xf82d98>
 168:	00000e03 	andeq	r0, r0, r3, lsl #28
 16c:	0b010403 	bleq	41180 <shift+0x41180>
 170:	3a13490b 	bcc	4d25a4 <shift+0x4d25a4>
 174:	010b3b0b 	tsteq	fp, fp, lsl #22
 178:	04000013 	streq	r0, [r0], #-19	; 0xffffffed
 17c:	0e030028 	cdpeq	0, 0, cr0, cr3, cr8, {1}
 180:	00000b1c 	andeq	r0, r0, ip, lsl fp
 184:	03001605 	movweq	r1, #1541	; 0x605
 188:	3b0b3a0e 	blcc	2ce9c8 <shift+0x2ce9c8>
 18c:	0013490b 	andseq	r4, r3, fp, lsl #18
 190:	01130600 	tsteq	r3, r0, lsl #12
 194:	0b3a0b0b 	bleq	e82dc8 <shift+0xe82dc8>
 198:	13010b3b 	movwne	r0, #6971	; 0x1b3b
 19c:	0d070000 	stceq	0, cr0, [r7, #-0]
 1a0:	3a0e0300 	bcc	380da8 <shift+0x380da8>
 1a4:	490b3b0b 	stmdbmi	fp, {r0, r1, r3, r8, r9, fp, ip, sp}
 1a8:	000b3813 	andeq	r3, fp, r3, lsl r8
 1ac:	000d0800 	andeq	r0, sp, r0, lsl #16
 1b0:	0b3a0803 	bleq	e821c4 <shift+0xe821c4>
 1b4:	13490b3b 	movtne	r0, #39739	; 0x9b3b
 1b8:	00000b38 	andeq	r0, r0, r8, lsr fp
 1bc:	49010109 	stmdbmi	r1, {r0, r3, r8}
 1c0:	00130113 	andseq	r0, r3, r3, lsl r1
 1c4:	00210a00 	eoreq	r0, r1, r0, lsl #20
 1c8:	0b2f1349 	bleq	bc4ef4 <shift+0xbc4ef4>
 1cc:	2e0b0000 	cdpcs	0, 0, cr0, cr11, cr0, {0}
 1d0:	03193f01 	tsteq	r9, #1, 30
 1d4:	3b0b3a0e 	blcc	2cea14 <shift+0x2cea14>
 1d8:	1113490b 	tstne	r3, fp, lsl #18
 1dc:	40061201 	andmi	r1, r6, r1, lsl #4
 1e0:	19429618 	stmdbne	r2, {r3, r4, r9, sl, ip, pc}^
 1e4:	00001301 	andeq	r1, r0, r1, lsl #6
 1e8:	0300340c 	movweq	r3, #1036	; 0x40c
 1ec:	3b0b3a08 	blcc	2cea14 <shift+0x2cea14>
 1f0:	0213490b 	andseq	r4, r3, #180224	; 0x2c000
 1f4:	0d000018 	stceq	0, cr0, [r0, #-96]	; 0xffffffa0
 1f8:	0e030034 	mcreq	0, 0, r0, cr3, cr4, {1}
 1fc:	0b3b0b3a 	bleq	ec2eec <shift+0xec2eec>
 200:	18021349 	stmdane	r2, {r0, r3, r6, r8, r9, ip}
 204:	240e0000 	strcs	r0, [lr], #-0
 208:	3e0b0b00 	vmlacc.f64	d0, d11, d0
 20c:	0008030b 	andeq	r0, r8, fp, lsl #6
 210:	11010000 	mrsne	r0, (UNDEF: 1)
 214:	130e2501 	movwne	r2, #58625	; 0xe501
 218:	1b0e030b 	blne	380e4c <shift+0x380e4c>
 21c:	1201110e 	andne	r1, r1, #-2147483645	; 0x80000003
 220:	00171006 	andseq	r1, r7, r6
 224:	00240200 	eoreq	r0, r4, r0, lsl #4
 228:	0b3e0b0b 	bleq	f82e5c <shift+0xf82e5c>
 22c:	00000e03 	andeq	r0, r0, r3, lsl #28
 230:	03001603 	movweq	r1, #1539	; 0x603
 234:	3b0b3a0e 	blcc	2cea74 <shift+0x2cea74>
 238:	0013490b 	andseq	r4, r3, fp, lsl #18
 23c:	000f0400 	andeq	r0, pc, r0, lsl #8
 240:	13490b0b 	movtne	r0, #39691	; 0x9b0b
 244:	26050000 	strcs	r0, [r5], -r0
 248:	00134900 	andseq	r4, r3, r0, lsl #18
 24c:	01010600 	tsteq	r1, r0, lsl #12
 250:	13011349 	movwne	r1, #4937	; 0x1349
 254:	21070000 	mrscs	r0, (UNDEF: 7)
 258:	2f134900 	svccs	0x00134900
 25c:	0800000b 	stmdaeq	r0, {r0, r1, r3}
 260:	0e030034 	mcreq	0, 0, r0, cr3, cr4, {1}
 264:	0b3b0b3a 	bleq	ec2f54 <shift+0xec2f54>
 268:	193f1349 	ldmdbne	pc!, {r0, r3, r6, r8, r9, ip}	; <UNPREDICTABLE>
 26c:	00001802 	andeq	r1, r0, r2, lsl #16
 270:	3f002e09 	svccc	0x00002e09
 274:	3a0e0319 	bcc	380ee0 <shift+0x380ee0>
 278:	270b3b0b 	strcs	r3, [fp, -fp, lsl #22]
 27c:	11134919 	tstne	r3, r9, lsl r9
 280:	40061201 	andmi	r1, r6, r1, lsl #4
 284:	19429618 	stmdbne	r2, {r3, r4, r9, sl, ip, pc}^
 288:	240a0000 	strcs	r0, [sl], #-0
 28c:	3e0b0b00 	vmlacc.f64	d0, d11, d0
 290:	0008030b 	andeq	r0, r8, fp, lsl #6
 294:	012e0b00 			; <UNDEFINED> instruction: 0x012e0b00
 298:	0e03193f 			; <UNDEFINED> instruction: 0x0e03193f
 29c:	0b3b0b3a 	bleq	ec2f8c <shift+0xec2f8c>
 2a0:	13491927 	movtne	r1, #39207	; 0x9927
 2a4:	06120111 			; <UNDEFINED> instruction: 0x06120111
 2a8:	42961840 	addsmi	r1, r6, #64, 16	; 0x400000
 2ac:	00130119 	andseq	r0, r3, r9, lsl r1
 2b0:	00050c00 	andeq	r0, r5, r0, lsl #24
 2b4:	0b3a0803 	bleq	e822c8 <shift+0xe822c8>
 2b8:	13490b3b 	movtne	r0, #39739	; 0x9b3b
 2bc:	00001802 	andeq	r1, r0, r2, lsl #16
 2c0:	0000180d 	andeq	r1, r0, sp, lsl #16
 2c4:	00340e00 	eorseq	r0, r4, r0, lsl #28
 2c8:	0b3a0803 	bleq	e822dc <shift+0xe822dc>
 2cc:	13490b3b 	movtne	r0, #39739	; 0x9b3b
 2d0:	00001802 	andeq	r1, r0, r2, lsl #16
 2d4:	03012e0f 	movweq	r2, #7695	; 0x1e0f
 2d8:	3b0b3a0e 	blcc	2ceb18 <shift+0x2ceb18>
 2dc:	4919270b 	ldmdbmi	r9, {r0, r1, r3, r8, r9, sl, sp}
 2e0:	12011113 	andne	r1, r1, #-1073741820	; 0xc0000004
 2e4:	96184006 	ldrls	r4, [r8], -r6
 2e8:	13011942 	movwne	r1, #6466	; 0x1942
 2ec:	34100000 	ldrcc	r0, [r0], #-0
 2f0:	3a0e0300 	bcc	380ef8 <shift+0x380ef8>
 2f4:	490b3b0b 	stmdbmi	fp, {r0, r1, r3, r8, r9, fp, ip, sp}
 2f8:	00180213 	andseq	r0, r8, r3, lsl r2
 2fc:	00051100 	andeq	r1, r5, r0, lsl #2
 300:	0b3a0e03 	bleq	e83b14 <shift+0xe83b14>
 304:	13490b3b 	movtne	r0, #39739	; 0x9b3b
 308:	00001802 	andeq	r1, r0, r2, lsl #16
 30c:	03012e12 	movweq	r2, #7698	; 0x1e12
 310:	3b0b3a0e 	blcc	2ceb50 <shift+0x2ceb50>
 314:	4919270b 	ldmdbmi	r9, {r0, r1, r3, r8, r9, sl, sp}
 318:	12011113 	andne	r1, r1, #-1073741820	; 0xc0000004
 31c:	96184006 	ldrls	r4, [r8], -r6
 320:	00001942 	andeq	r1, r0, r2, asr #18
 324:	01110100 	tsteq	r1, r0, lsl #2
 328:	0b130e25 	bleq	4c3bc4 <shift+0x4c3bc4>
 32c:	0e1b0e03 	cdpeq	14, 1, cr0, cr11, cr3, {0}
 330:	06120111 			; <UNDEFINED> instruction: 0x06120111
 334:	00001710 	andeq	r1, r0, r0, lsl r7
 338:	0b011302 	bleq	44f48 <shift+0x44f48>
 33c:	3b0b3a0b 	blcc	2ceb70 <shift+0x2ceb70>
 340:	0013010b 	andseq	r0, r3, fp, lsl #2
 344:	000d0300 	andeq	r0, sp, r0, lsl #6
 348:	0b3a0e03 	bleq	e83b5c <shift+0xe83b5c>
 34c:	13490b3b 	movtne	r0, #39739	; 0x9b3b
 350:	00000b38 	andeq	r0, r0, r8, lsr fp
 354:	0b002404 	bleq	936c <shift+0x936c>
 358:	030b3e0b 	movweq	r3, #48651	; 0xbe0b
 35c:	0500000e 	streq	r0, [r0, #-14]
 360:	13490035 	movtne	r0, #36917	; 0x9035
 364:	01060000 	mrseq	r0, (UNDEF: 6)
 368:	01134901 	tsteq	r3, r1, lsl #18
 36c:	07000013 	smladeq	r0, r3, r0, r0
 370:	13490021 	movtne	r0, #36897	; 0x9021
 374:	00000b2f 	andeq	r0, r0, pc, lsr #22
 378:	03001608 	movweq	r1, #1544	; 0x608
 37c:	3b0b3a0e 	blcc	2cebbc <shift+0x2cebbc>
 380:	0013490b 	andseq	r4, r3, fp, lsl #18
 384:	01040900 	tsteq	r4, r0, lsl #18
 388:	13490b0b 	movtne	r0, #39691	; 0x9b0b
 38c:	0b3b0b3a 	bleq	ec307c <shift+0xec307c>
 390:	00001301 	andeq	r1, r0, r1, lsl #6
 394:	0300280a 	movweq	r2, #2058	; 0x80a
 398:	000b1c0e 	andeq	r1, fp, lr, lsl #24
 39c:	000d0b00 	andeq	r0, sp, r0, lsl #22
 3a0:	0b3a0803 	bleq	e823b4 <shift+0xe823b4>
 3a4:	13490b3b 	movtne	r0, #39739	; 0x9b3b
 3a8:	00000b38 	andeq	r0, r0, r8, lsr fp
 3ac:	0300340c 	movweq	r3, #1036	; 0x40c
 3b0:	3b0b3a0e 	blcc	2cebf0 <shift+0x2cebf0>
 3b4:	0213490b 	andseq	r4, r3, #180224	; 0x2c000
 3b8:	0d000018 	stceq	0, cr0, [r0, #-96]	; 0xffffffa0
 3bc:	0b0b000f 	bleq	2c0400 <shift+0x2c0400>
 3c0:	00001349 	andeq	r1, r0, r9, asr #6
 3c4:	0300340e 	movweq	r3, #1038	; 0x40e
 3c8:	3b0b3a0e 	blcc	2cec08 <shift+0x2cec08>
 3cc:	3f13490b 	svccc	0x0013490b
 3d0:	00180219 	andseq	r0, r8, r9, lsl r2
 3d4:	012e0f00 			; <UNDEFINED> instruction: 0x012e0f00
 3d8:	0e03193f 			; <UNDEFINED> instruction: 0x0e03193f
 3dc:	053b0b3a 	ldreq	r0, [fp, #-2874]!	; 0xfffff4c6
 3e0:	01111927 	tsteq	r1, r7, lsr #18
 3e4:	18400612 	stmdane	r0, {r1, r4, r9, sl}^
 3e8:	01194297 			; <UNDEFINED> instruction: 0x01194297
 3ec:	10000013 	andne	r0, r0, r3, lsl r0
 3f0:	0e030005 	cdpeq	0, 0, cr0, cr3, cr5, {0}
 3f4:	053b0b3a 	ldreq	r0, [fp, #-2874]!	; 0xfffff4c6
 3f8:	18021349 	stmdane	r2, {r0, r3, r6, r8, r9, ip}
 3fc:	34110000 	ldrcc	r0, [r1], #-0
 400:	3a080300 	bcc	201008 <shift+0x201008>
 404:	49053b0b 	stmdbmi	r5, {r0, r1, r3, r8, r9, fp, ip, sp}
 408:	00180213 	andseq	r0, r8, r3, lsl r2
 40c:	012e1200 			; <UNDEFINED> instruction: 0x012e1200
 410:	0e03193f 			; <UNDEFINED> instruction: 0x0e03193f
 414:	0b3b0b3a 	bleq	ec3104 <shift+0xec3104>
 418:	01111927 	tsteq	r1, r7, lsr #18
 41c:	18400612 	stmdane	r0, {r1, r4, r9, sl}^
 420:	01194296 			; <UNDEFINED> instruction: 0x01194296
 424:	13000013 	movwne	r0, #19
 428:	0e030005 	cdpeq	0, 0, cr0, cr3, cr5, {0}
 42c:	0b3b0b3a 	bleq	ec311c <shift+0xec311c>
 430:	18021349 	stmdane	r2, {r0, r3, r6, r8, r9, ip}
 434:	2e140000 	cdpcs	0, 1, cr0, cr4, cr0, {0}
 438:	3a0e0301 	bcc	381044 <shift+0x381044>
 43c:	270b3b0b 	strcs	r3, [fp, -fp, lsl #22]
 440:	11134919 	tstne	r3, r9, lsl r9
 444:	40061201 	andmi	r1, r6, r1, lsl #4
 448:	19429718 	stmdbne	r2, {r3, r4, r8, r9, sl, ip, pc}^
 44c:	00001301 	andeq	r1, r0, r1, lsl #6
 450:	3f002e15 	svccc	0x00002e15
 454:	3a0e0319 	bcc	3810c0 <shift+0x3810c0>
 458:	270b3b0b 	strcs	r3, [fp, -fp, lsl #22]
 45c:	12011119 	andne	r1, r1, #1073741830	; 0x40000006
 460:	96184006 	ldrls	r4, [r8], -r6
 464:	00001942 	andeq	r1, r0, r2, asr #18
 468:	03002e16 	movweq	r2, #3606	; 0xe16
 46c:	3b0b3a0e 	blcc	2cecac <shift+0x2cecac>
 470:	1119270b 	tstne	r9, fp, lsl #14
 474:	40061201 	andmi	r1, r6, r1, lsl #4
 478:	19429718 	stmdbne	r2, {r3, r4, r8, r9, sl, ip, pc}^
 47c:	01000000 	mrseq	r0, (UNDEF: 0)
 480:	06100011 			; <UNDEFINED> instruction: 0x06100011
 484:	01120111 	tsteq	r2, r1, lsl r1
 488:	081b0803 	ldmdaeq	fp, {r0, r1, fp}
 48c:	05130825 	ldreq	r0, [r3, #-2085]	; 0xfffff7db
 490:	01000000 	mrseq	r0, (UNDEF: 0)
 494:	06100011 			; <UNDEFINED> instruction: 0x06100011
 498:	01120111 	tsteq	r2, r1, lsl r1
 49c:	081b0803 	ldmdaeq	fp, {r0, r1, fp}
 4a0:	05130825 	ldreq	r0, [r3, #-2085]	; 0xfffff7db
 4a4:	Address 0x00000000000004a4 is out of bounds.


Disassembly of section .debug_aranges:

00000000 <.debug_aranges>:
   0:	0000001c 	andeq	r0, r0, ip, lsl r0
   4:	00000002 	andeq	r0, r0, r2
   8:	00040000 	andeq	r0, r4, r0
   c:	00000000 	andeq	r0, r0, r0
  10:	80100000 	andshi	r0, r0, r0
  14:	0000003c 	andeq	r0, r0, ip, lsr r0
	...
  20:	0000001c 	andeq	r0, r0, ip, lsl r0
  24:	007d0002 	rsbseq	r0, sp, r2
  28:	00040000 	andeq	r0, r4, r0
  2c:	00000000 	andeq	r0, r0, r0
  30:	8010003c 	andshi	r0, r0, ip, lsr r0
  34:	00000176 	andeq	r0, r0, r6, ror r1
	...
  40:	0000001c 	andeq	r0, r0, ip, lsl r0
  44:	02980002 	addseq	r0, r8, #2
  48:	00040000 	andeq	r0, r4, r0
  4c:	00000000 	andeq	r0, r0, r0
  50:	801001b2 			; <UNDEFINED> instruction: 0x801001b2
  54:	00000084 	andeq	r0, r0, r4, lsl #1
	...
  60:	0000001c 	andeq	r0, r0, ip, lsl r0
  64:	03ce0002 	biceq	r0, lr, #2
  68:	00040000 	andeq	r0, r4, r0
  6c:	00000000 	andeq	r0, r0, r0
  70:	80100238 	andshi	r0, r0, r8, lsr r2
  74:	000003ca 	andeq	r0, r0, sl, asr #7
	...
  80:	0000001c 	andeq	r0, r0, ip, lsl r0
  84:	05eb0002 	strbeq	r0, [fp, #2]!
  88:	00040000 	andeq	r0, r4, r0
  8c:	00000000 	andeq	r0, r0, r0
  90:	80100604 	andshi	r0, r0, r4, lsl #12
  94:	00000816 	andeq	r0, r0, r6, lsl r8
	...
  a0:	0000001c 	andeq	r0, r0, ip, lsl r0
  a4:	0b910002 	bleq	fe4400b4 <__bss_end+0x7e33ee08>
  a8:	00040000 	andeq	r0, r4, r0
  ac:	00000000 	andeq	r0, r0, r0
  b0:	80100e20 	andshi	r0, r0, r0, lsr #28
  b4:	00000276 	andeq	r0, r0, r6, ror r2
	...
  c0:	0000001c 	andeq	r0, r0, ip, lsl r0
  c4:	0d500002 	ldcleq	0, cr0, [r0, #-8]
  c8:	00040000 	andeq	r0, r4, r0
  cc:	00000000 	andeq	r0, r0, r0
  d0:	80101098 	mulshi	r0, r8, r0
  d4:	0000000c 	andeq	r0, r0, ip
	...

Disassembly of section .debug_str:

00000000 <.debug_str>:
   0:	32525355 	subscc	r5, r2, #1409286145	; 0x54000001
   4:	554e4700 	strbpl	r4, [lr, #-1792]	; 0xfffff900
   8:	31314320 	teqcc	r1, r0, lsr #6
   c:	322e3620 	eorcc	r3, lr, #32, 12	; 0x2000000
  10:	3220312e 	eorcc	r3, r0, #-2147483637	; 0x8000000b
  14:	31363130 	teqcc	r6, r0, lsr r1
  18:	20363130 	eorscs	r3, r6, r0, lsr r1
  1c:	72616d2d 	rsbvc	r6, r1, #2880	; 0xb40
  20:	613d6863 	teqvs	sp, r3, ror #16
  24:	37766d72 			; <UNDEFINED> instruction: 0x37766d72
  28:	2d20612d 	stfcss	f6, [r0, #-180]!	; 0xffffff4c
  2c:	6e75746d 	cdpvs	4, 7, cr7, cr5, cr13, {3}
  30:	6f633d65 	svcvs	0x00633d65
  34:	78657472 	stmdavc	r5!, {r1, r4, r5, r6, sl, ip, sp, lr}^
  38:	2039612d 	eorscs	r6, r9, sp, lsr #2
  3c:	6c666d2d 	stclvs	13, cr6, [r6], #-180	; 0xffffff4c
  40:	2d74616f 	ldfcse	f6, [r4, #-444]!	; 0xfffffe44
  44:	3d696261 	sfmcc	f6, 2, [r9, #-388]!	; 0xfffffe7c
  48:	64726168 	ldrbtvs	r6, [r2], #-360	; 0xfffffe98
  4c:	666d2d20 	strbtvs	r2, [sp], -r0, lsr #26
  50:	763d7570 			; <UNDEFINED> instruction: 0x763d7570
  54:	33767066 	cmncc	r6, #102	; 0x66
  58:	3631642d 	ldrtcc	r6, [r1], -sp, lsr #8
  5c:	746d2d20 	strbtvc	r2, [sp], #-3360	; 0xfffff2e0
  60:	626d7568 	rsbvs	r7, sp, #104, 10	; 0x1a000000
  64:	746d2d20 	strbtvc	r2, [sp], #-3360	; 0xfffff2e0
  68:	642d736c 	strtvs	r7, [sp], #-876	; 0xfffffc94
  6c:	656c6169 	strbvs	r6, [ip, #-361]!	; 0xfffffe97
  70:	673d7463 	ldrvs	r7, [sp, -r3, ror #8]!
  74:	2d20756e 	cfstr32cs	mvfx7, [r0, #-440]!	; 0xfffffe48
  78:	45550067 	ldrbmi	r0, [r5, #-103]	; 0xffffff99
  7c:	73004353 	movwvc	r4, #851	; 0x353
  80:	756e6769 	strbvc	r6, [lr, #-1897]!	; 0xfffff897
  84:	5455006d 	ldrbpl	r0, [r5], #-109	; 0xffffff93
  88:	47004d49 	strmi	r4, [r0, -r9, asr #26]
  8c:	68437465 	stmdavs	r3, {r0, r2, r5, r6, sl, ip, sp, lr}^
  90:	49007261 	stmdbmi	r0, {r0, r5, r6, r9, ip, sp, lr}
  94:	58554d4f 	ldmdapl	r5, {r0, r1, r2, r3, r6, r8, sl, fp, lr}^
  98:	57535f43 	ldrbpl	r5, [r3, -r3, asr #30]
  9c:	58554d5f 	ldmdapl	r5, {r0, r1, r2, r3, r4, r6, r8, sl, fp, lr}^
  a0:	4c54435f 	mrrcmi	3, 5, r4, r4, cr15	; <UNPREDICTABLE>
  a4:	4441505f 	strbmi	r5, [r1], #-95	; 0xffffffa1
  a8:	5241555f 	subpl	r5, r1, #398458880	; 0x17c00000
  ac:	545f3154 	ldrbpl	r3, [pc], #-340	; b4 <shift+0xb4>
  b0:	41445f58 	cmpmi	r4, r8, asr pc
  b4:	55004154 	strpl	r4, [r0, #-340]	; 0xfffffeac
  b8:	00435242 	subeq	r5, r3, r2, asr #4
  bc:	6d6f682f 	stclvs	8, cr6, [pc, #-188]!	; 8 <shift+0x8>
  c0:	6f622f65 	svcvs	0x00622f65
  c4:	442f6b6f 	strtmi	r6, [pc], #-2927	; cc <shift+0xcc>
  c8:	6c6e776f 	stclvs	7, cr7, [lr], #-444	; 0xfffffe44
  cc:	7364616f 	cmnvc	r4, #-1073741797	; 0xc000001b
  d0:	3030312f 	eorscc	r3, r0, pc, lsr #2
  d4:	5f6b7361 	svcpl	0x006b7361
  d8:	36786d69 	ldrbtcc	r6, [r8], -r9, ror #26
  dc:	5f6c6c75 	svcpl	0x006c6c75
  e0:	736f6f4e 	cmnvc	pc, #312	; 0x138
  e4:	676f7250 			; <UNDEFINED> instruction: 0x676f7250
  e8:	506d6172 	rsbpl	r6, sp, r2, ror r1
  ec:	656a6f72 	strbvs	r6, [sl, #-3954]!	; 0xfffff08e
  f0:	312f7463 			; <UNDEFINED> instruction: 0x312f7463
  f4:	4d455f33 	stclmi	15, cr5, [r5, #-204]	; 0xffffff34
  f8:	bce7434d 	stcllt	3, cr4, [r7], #308	; 0x134
  fc:	8ba8e796 	blhi	fea39f5c <__bss_end+0x7e938cb0>
 100:	5f31302f 	svcpl	0x0031302f
 104:	636d6d65 	cmnvs	sp, #6464	; 0x1940
 108:	53455200 	movtpl	r5, #20992	; 0x5200
 10c:	45565245 	ldrbmi	r5, [r6, #-581]	; 0xfffffdbb
 110:	00305f44 	eorseq	r5, r0, r4, asr #30
 114:	44585255 	ldrbmi	r5, [r8], #-597	; 0xfffffdab
 118:	43465500 	movtmi	r5, #25856	; 0x6500
 11c:	6e750052 	mrcvs	0, 3, r0, cr5, cr2, {2}
 120:	6e676973 			; <UNDEFINED> instruction: 0x6e676973
 124:	63206465 			; <UNDEFINED> instruction: 0x63206465
 128:	00726168 	rsbseq	r6, r2, r8, ror #2
 12c:	44585455 	ldrbmi	r5, [r8], #-1109	; 0xfffffbab
 130:	4d425500 	cfstr64mi	mvdx5, [r2, #-0]
 134:	4d550052 	ldclmi	0, cr0, [r5, #-328]	; 0xfffffeb8
 138:	75005243 	strvc	r5, [r0, #-579]	; 0xfffffdbd
 13c:	2e747261 	cdpcs	2, 7, cr7, cr4, cr1, {3}
 140:	43550063 	cmpmi	r5, #99	; 0x63
 144:	55003152 	strpl	r3, [r0, #-338]	; 0xfffffeae
 148:	00325243 	eorseq	r5, r2, r3, asr #4
 14c:	33524355 	cmpcc	r2, #1409286145	; 0x54000001
 150:	52435500 	subpl	r5, r3, #0, 10
 154:	42550034 	subsmi	r0, r5, #52	; 0x34
 158:	4f005249 	svcmi	0x00005249
 15c:	534d454e 	movtpl	r4, #54606	; 0xd54e
 160:	74755000 	ldrbtvc	r5, [r5], #-0
 164:	72616843 	rsbvc	r6, r1, #4390912	; 0x430000
 168:	72615500 	rsbvc	r5, r1, #0, 10
 16c:	6e495f74 	mcrvs	15, 2, r5, cr9, cr4, {3}
 170:	72007469 	andvc	r7, r0, #1761607680	; 0x69000000
 174:	65736961 	ldrbvs	r6, [r3, #-2401]!	; 0xfffff69f
 178:	4d4f4900 	vstrmi.16	s9, [pc, #-0]	; 180 <shift+0x180>	; <UNPREDICTABLE>
 17c:	5f435855 	svcpl	0x00435855
 180:	4d5f5753 	ldclmi	7, cr5, [pc, #-332]	; 3c <shift+0x3c>
 184:	435f5855 	cmpmi	pc, #5570560	; 0x550000
 188:	505f4c54 	subspl	r4, pc, r4, asr ip	; <UNPREDICTABLE>
 18c:	555f4441 	ldrbpl	r4, [pc, #-1089]	; fffffd53 <__bss_end+0x7fefeaa7>
 190:	31545241 	cmpcc	r4, r1, asr #4
 194:	5f58525f 	svcpl	0x0058525f
 198:	41544144 	cmpmi	r4, r4, asr #2
 19c:	74755000 	ldrbtvc	r5, [r5], #-0
 1a0:	00727453 	rsbseq	r7, r2, r3, asr r4
 1a4:	45534552 	ldrbmi	r4, [r3, #-1362]	; 0xfffffaae
 1a8:	44455652 	strbmi	r5, [r5], #-1618	; 0xfffff9ae
 1ac:	5500315f 	strpl	r3, [r0, #-351]	; 0xfffffea1
 1b0:	5f545241 	svcpl	0x00545241
 1b4:	65707954 	ldrbvs	r7, [r0, #-2388]!	; 0xfffff6ac
 1b8:	7a697300 	bvc	1a5cdc0 <shift+0x1a5cdc0>
 1bc:	70797465 	rsbsvc	r7, r9, r5, ror #8
 1c0:	53550065 	cmppl	r5, #101	; 0x65
 1c4:	52003152 	andpl	r3, r0, #-2147483628	; 0x80000014
 1c8:	6f707365 	svcvs	0x00707365
 1cc:	5465736e 	strbtpl	r7, [r5], #-878	; 0xfffffc92
 1d0:	52657079 	rsbpl	r7, r5, #121	; 0x79
 1d4:	55006231 	strpl	r6, [r0, #-561]	; 0xfffffdcf
 1d8:	43484453 	movtmi	r4, #33875	; 0x8453
 1dc:	6d6f435f 	stclvs	3, cr4, [pc, #-380]!	; 68 <shift+0x68>
 1e0:	646e616d 	strbtvs	r6, [lr], #-365	; 0xfffffe93
 1e4:	6d6f6300 	stclvs	3, cr6, [pc, #-0]	; 1ec <shift+0x1ec>
 1e8:	646e616d 	strbtvs	r6, [lr], #-365	; 0xfffffe93
 1ec:	73655200 	cmnvc	r5, #0, 4
 1f0:	736e6f70 	cmnvc	lr, #112, 30	; 0x1c0
 1f4:	70795465 	rsbsvc	r5, r9, r5, ror #8
 1f8:	62355265 	eorsvs	r5, r5, #1342177286	; 0x50000006
 1fc:	73655200 	cmnvc	r5, #0, 4
 200:	736e6f70 	cmnvc	lr, #112, 30	; 0x1c0
 204:	70795465 	rsbsvc	r5, r9, r5, ror #8
 208:	6e6f4e65 	cdpvs	14, 6, cr4, cr15, cr5, {3}
 20c:	696d0065 	stmdbvs	sp!, {r0, r2, r5, r6}^
 210:	74635f78 	strbtvc	r5, [r3], #-3960	; 0xfffff088
 214:	6d006c72 	stcvs	12, cr6, [r0, #-456]	; 0xfffffe38
 218:	006e6961 	rsbeq	r6, lr, r1, ror #18
 21c:	70736572 	rsbsvc	r6, r3, r2, ror r5
 220:	65736e6f 	ldrbvs	r6, [r3, #-3695]!	; 0xfffff191
 224:	7079745f 	rsbsvc	r7, r9, pc, asr r4
 228:	65720065 	ldrbvs	r0, [r2, #-101]!	; 0xffffff9b
 22c:	6e6f7073 	mcrvs	0, 3, r7, cr15, cr3, {3}
 230:	55006573 	strpl	r6, [r0, #-1395]	; 0xfffffa8d
 234:	43484453 	movtmi	r4, #33875	; 0x8453
 238:	7365525f 	cmnvc	r5, #-268435451	; 0xf0000005
 23c:	656e6f70 	strbvs	r6, [lr, #-3952]!	; 0xfffff090
 240:	79545f73 	ldmdbvc	r4, {r0, r1, r4, r5, r6, r8, r9, sl, fp, ip, lr}^
 244:	6d006570 	cfstr32vs	mvfx6, [r0, #-448]	; 0xfffffe40
 248:	2e6e6961 	vnmulcs.f16	s13, s28, s3	; <UNPREDICTABLE>
 24c:	6e690063 	cdpvs	0, 6, cr0, cr9, cr3, {3}
 250:	00786564 	rsbseq	r6, r8, r4, ror #10
 254:	70736552 	rsbsvc	r6, r3, r2, asr r5
 258:	65736e6f 	ldrbvs	r6, [r3, #-3695]!	; 0xfffff191
 25c:	65707954 	ldrbvs	r7, [r0, #-2388]!	; 0xfffff6ac
 260:	52003152 	andpl	r3, r0, #-2147483628	; 0x80000014
 264:	6f707365 	svcvs	0x00707365
 268:	5465736e 	strbtpl	r7, [r5], #-878	; 0xfffffc92
 26c:	52657079 	rsbpl	r7, r5, #121	; 0x79
 270:	65520032 	ldrbvs	r0, [r2, #-50]	; 0xffffffce
 274:	6e6f7073 	mcrvs	0, 3, r7, cr15, cr3, {3}
 278:	79546573 	ldmdbvc	r4, {r0, r1, r4, r5, r6, r8, sl, sp, lr}^
 27c:	33526570 	cmpcc	r2, #112, 10	; 0x1c000000
 280:	73655200 	cmnvc	r5, #0, 4
 284:	736e6f70 	cmnvc	lr, #112, 30	; 0x1c0
 288:	70795465 	rsbsvc	r5, r9, r5, ror #8
 28c:	00345265 	eorseq	r5, r4, r5, ror #4
 290:	70736552 	rsbsvc	r6, r3, r2, asr r5
 294:	65736e6f 	ldrbvs	r6, [r3, #-3695]!	; 0xfffff191
 298:	65707954 	ldrbvs	r7, [r0, #-2388]!	; 0xfffff6ac
 29c:	52003552 	andpl	r3, r0, #343932928	; 0x14800000
 2a0:	6f707365 	svcvs	0x00707365
 2a4:	5465736e 	strbtpl	r7, [r5], #-878	; 0xfffffc92
 2a8:	52657079 	rsbpl	r7, r5, #121	; 0x79
 2ac:	65520036 	ldrbvs	r0, [r2, #-54]	; 0xffffffca
 2b0:	6e6f7073 	mcrvs	0, 3, r7, cr15, cr3, {3}
 2b4:	79546573 	ldmdbvc	r4, {r0, r1, r4, r5, r6, r8, sl, sp, lr}^
 2b8:	37526570 			; <UNDEFINED> instruction: 0x37526570
 2bc:	72667800 	rsbvc	r7, r6, #0, 16
 2c0:	7079745f 	rsbsvc	r7, r9, pc, asr r4
 2c4:	74756f00 	ldrbtvc	r6, [r5], #-3840	; 0xfffff100
 2c8:	6d756e5f 	ldclvs	14, cr6, [r5, #-380]!	; 0xfffffe84
 2cc:	756f6300 	strbvc	r6, [pc, #-768]!	; ffffffd4 <__bss_end+0x7fefed28>
 2d0:	6d00746e 	cfstrsvs	mvf7, [r0, #-440]	; 0xfffffe48
 2d4:	70765f79 	rsbsvc	r5, r6, r9, ror pc
 2d8:	746e6972 	strbtvc	r6, [lr], #-2418	; 0xfffff68e
 2dc:	61760066 	cmnvs	r6, r6, rrx
 2e0:	73696c5f 	cmnvc	r9, #24320	; 0x5f00
 2e4:	61620074 	smcvs	8196	; 0x2004
 2e8:	6c006573 	cfstr32vs	mvfx6, [r0], {115}	; 0x73
 2ec:	00646165 	rsbeq	r6, r4, r5, ror #2
 2f0:	7778616d 	ldrbvc	r6, [r8, -sp, ror #2]!
 2f4:	68746469 	ldmdavs	r4!, {r0, r3, r5, r6, sl, sp, lr}^
 2f8:	6e6f6c00 	cdpvs	12, 6, cr6, cr15, cr0, {0}
 2fc:	6e752067 	cdpvs	0, 7, cr2, cr5, cr7, {3}
 300:	6e676973 			; <UNDEFINED> instruction: 0x6e676973
 304:	69206465 	stmdbvs	r0!, {r0, r2, r5, r6, sl, sp, lr}
 308:	6f00746e 	svcvs	0x0000746e
 30c:	00637475 	rsbeq	r7, r3, r5, ror r4
 310:	705f796d 	subsvc	r7, pc, sp, ror #18
 314:	746e6972 	strbtvc	r6, [lr], #-2418	; 0xfffff68e
 318:	00632e66 	rsbeq	r2, r3, r6, ror #28
 31c:	7374756f 	cmnvc	r4, #465567744	; 0x1bc00000
 320:	6e6f6c00 	cdpvs	12, 6, cr6, cr15, cr0, {0}
 324:	6e692067 	cdpvs	0, 6, cr2, cr9, cr7, {3}
 328:	65680074 	strbvs	r0, [r8, #-116]!	; 0xffffff8c
 32c:	61745f78 	cmnvs	r4, r8, ror pc
 330:	796d0062 	stmdbvc	sp!, {r1, r5, r6}^
 334:	6972705f 	ldmdbvs	r2!, {r0, r1, r2, r3, r4, r6, ip, sp, lr}^
 338:	5f66746e 	svcpl	0x0066746e
 33c:	74736574 	ldrbtvc	r6, [r3], #-1396	; 0xfffffa8c
 340:	4d545700 	ldclmi	7, cr5, [r4, #-0]
 344:	564c5f4b 	strbpl	r5, [ip], -fp, asr #30
 348:	5554004c 	ldrbpl	r0, [r4, #-76]	; 0xffffffb4
 34c:	474e494e 	strbmi	r4, [lr, -lr, asr #18]
 350:	5254435f 	subspl	r4, r4, #2080374785	; 0x7c000001
 354:	4f49004c 	svcmi	0x0049004c
 358:	4358554d 	cmpmi	r8, #322961408	; 0x13400000
 35c:	4453555f 	ldrbmi	r5, [r3], #-1375	; 0xfffffaa1
 360:	5f324348 	svcpl	0x00324348
 364:	41544144 	cmpmi	r4, r4, asr #2
 368:	45535f35 	ldrbmi	r5, [r3, #-3893]	; 0xfffff0cb
 36c:	5443454c 	strbpl	r4, [r3], #-1356	; 0xfffffab4
 370:	504e495f 	subpl	r4, lr, pc, asr r9
 374:	53005455 	movwpl	r5, #1109	; 0x455
 378:	435f5359 	cmpmi	pc, #1677721601	; 0x64000001
 37c:	004c5254 	subeq	r5, ip, r4, asr r2
 380:	444e4556 	strbmi	r4, [lr], #-1366	; 0xfffffaaa
 384:	4550535f 	ldrbmi	r5, [r0, #-863]	; 0xfffffca1
 388:	4f490043 	svcmi	0x00490043
 38c:	4358554d 	cmpmi	r8, #322961408	; 0x13400000
 390:	4453555f 	ldrbmi	r5, [r3], #-1375	; 0xfffffaa1
 394:	5f324348 	svcpl	0x00324348
 398:	5f4b4c43 	svcpl	0x004b4c43
 39c:	454c4553 	strbmi	r4, [ip, #-1363]	; 0xfffffaad
 3a0:	495f5443 	ldmdbmi	pc, {r0, r1, r6, sl, ip, lr}^	; <UNPREDICTABLE>
 3a4:	5455504e 	ldrbpl	r5, [r5], #-78	; 0xffffffb2
 3a8:	4d4f4900 	vstrmi.16	s9, [pc, #-0]	; 3b0 <shift+0x3b0>	; <UNPREDICTABLE>
 3ac:	5f435855 	svcpl	0x00435855
 3b0:	48445355 	stmdami	r4, {r0, r2, r4, r6, r8, r9, ip, lr}^
 3b4:	445f3243 	ldrbmi	r3, [pc], #-579	; 3bc <shift+0x3bc>
 3b8:	31415441 	cmpcc	r1, r1, asr #8
 3bc:	4c45535f 	mcrrmi	3, 5, r5, r5, cr15
 3c0:	5f544345 	svcpl	0x00544345
 3c4:	55504e49 	ldrbpl	r4, [r0, #-3657]	; 0xfffff1b7
 3c8:	4f490054 	svcmi	0x00490054
 3cc:	4358554d 	cmpmi	r8, #322961408	; 0x13400000
 3d0:	4453555f 	ldrbmi	r5, [r3], #-1375	; 0xfffffaa1
 3d4:	5f324348 	svcpl	0x00324348
 3d8:	41544144 	cmpmi	r4, r4, asr #2
 3dc:	45535f33 	ldrbmi	r5, [r3, #-3891]	; 0xfffff0cd
 3e0:	5443454c 	strbpl	r4, [r3], #-1356	; 0xfffffab4
 3e4:	504e495f 	subpl	r4, lr, pc, asr r9
 3e8:	43005455 	movwmi	r5, #1109	; 0x455
 3ec:	585f444d 	ldmdapl	pc, {r0, r2, r3, r6, sl, lr}^	; <UNPREDICTABLE>
 3f0:	545f5246 	ldrbpl	r5, [pc], #-582	; 3f8 <shift+0x3f8>
 3f4:	49005059 	stmdbmi	r0, {r0, r3, r4, r6, ip, lr}
 3f8:	58554d4f 	ldmdapl	r5, {r0, r1, r2, r3, r6, r8, sl, fp, lr}^
 3fc:	53555f43 	cmppl	r5, #268	; 0x10c
 400:	32434844 	subcc	r4, r3, #68, 16	; 0x440000
 404:	5441445f 	strbpl	r4, [r1], #-1119	; 0xfffffba1
 408:	535f3441 	cmppl	pc, #1090519040	; 0x41000000
 40c:	43454c45 	movtmi	r4, #23621	; 0x5c45
 410:	4e495f54 	mcrmi	15, 2, r5, cr9, cr4, {2}
 414:	00545550 	subseq	r5, r4, r0, asr r5
 418:	41544144 	cmpmi	r4, r4, asr #2
 41c:	4655425f 			; <UNDEFINED> instruction: 0x4655425f
 420:	43415f46 	movtmi	r5, #8006	; 0x1f46
 424:	4f505f43 	svcmi	0x00505f43
 428:	56005452 			; <UNDEFINED> instruction: 0x56005452
 42c:	5f444e45 	svcpl	0x00444e45
 430:	43455053 	movtmi	r5, #20563	; 0x5053
 434:	4f490032 	svcmi	0x00490032
 438:	4358554d 	cmpmi	r8, #322961408	; 0x13400000
 43c:	5f57535f 	svcpl	0x0057535f
 440:	5f58554d 	svcpl	0x0058554d
 444:	5f4c5443 	svcpl	0x004c5443
 448:	5f444150 	svcpl	0x00444150
 44c:	444e414e 	strbmi	r4, [lr], #-334	; 0xfffffeb2
 450:	454c415f 	strbmi	r4, [ip, #-351]	; 0xfffffea1
 454:	524f4600 	subpl	r4, pc, #0, 12
 458:	455f4543 	ldrbmi	r4, [pc, #-1347]	; ffffff1d <__bss_end+0x7fefec71>
 45c:	544e4556 	strbpl	r4, [lr], #-1366	; 0xfffffaaa
 460:	4d4f4900 	vstrmi.16	s9, [pc, #-0]	; 468 <shift+0x468>	; <UNPREDICTABLE>
 464:	5f435855 	svcpl	0x00435855
 468:	48445355 	stmdami	r4, {r0, r2, r4, r6, r8, r9, ip, lr}^
 46c:	445f3243 	ldrbmi	r3, [pc], #-579	; 474 <shift+0x474>
 470:	37415441 	strbcc	r5, [r1, -r1, asr #8]
 474:	4c45535f 	mcrrmi	3, 5, r5, r5, cr15
 478:	5f544345 	svcpl	0x00544345
 47c:	55504e49 	ldrbpl	r4, [r0, #-3657]	; 0xfffff1b7
 480:	4f490054 	svcmi	0x00490054
 484:	4358554d 	cmpmi	r8, #322961408	; 0x13400000
 488:	5f57535f 	svcpl	0x0057535f
 48c:	5f444150 	svcpl	0x00444150
 490:	5f4c5443 	svcpl	0x004c5443
 494:	5f444150 	svcpl	0x00444150
 498:	444e414e 	strbmi	r4, [lr], #-334	; 0xfffffeb2
 49c:	5f45575f 	svcpl	0x0045575f
 4a0:	4f490042 	svcmi	0x00490042
 4a4:	4358554d 	cmpmi	r8, #322961408	; 0x13400000
 4a8:	4453555f 	ldrbmi	r5, [r3], #-1375	; 0xfffffaa1
 4ac:	5f324348 	svcpl	0x00324348
 4b0:	41544144 	cmpmi	r4, r4, asr #2
 4b4:	45535f30 	ldrbmi	r5, [r3, #-3888]	; 0xfffff0d0
 4b8:	5443454c 	strbpl	r4, [r3], #-1356	; 0xfffffab4
 4bc:	504e495f 	subpl	r4, lr, pc, asr r9
 4c0:	48005455 	stmdami	r0, {r0, r2, r4, r6, sl, ip, lr}
 4c4:	5f54534f 	svcpl	0x0054534f
 4c8:	4c525443 	cfldrdmi	mvd5, [r2], {67}	; 0x43
 4cc:	5041435f 	subpl	r4, r1, pc, asr r3
 4d0:	4d4f4900 	vstrmi.16	s9, [pc, #-0]	; 4d8 <shift+0x4d8>	; <UNPREDICTABLE>
 4d4:	5f435855 	svcpl	0x00435855
 4d8:	4d5f5753 	ldclmi	7, cr5, [pc, #-332]	; 394 <shift+0x394>
 4dc:	435f5855 	cmpmi	pc, #5570560	; 0x550000
 4e0:	505f4c54 	subspl	r4, pc, r4, asr ip	; <UNPREDICTABLE>
 4e4:	4e5f4441 	cdpmi	4, 5, cr4, cr15, cr1, {2}
 4e8:	5f444e41 	svcpl	0x00444e41
 4ec:	425f4552 	subsmi	r4, pc, #343932928	; 0x14800000
 4f0:	4d4f4900 	vstrmi.16	s9, [pc, #-0]	; 4f8 <shift+0x4f8>	; <UNPREDICTABLE>
 4f4:	5f435855 	svcpl	0x00435855
 4f8:	4d5f5753 	ldclmi	7, cr5, [pc, #-332]	; 3b4 <shift+0x3b4>
 4fc:	435f5855 	cmpmi	pc, #5570560	; 0x550000
 500:	505f4c54 	subspl	r4, pc, r4, asr ip	; <UNPREDICTABLE>
 504:	4e5f4441 	cdpmi	4, 5, cr4, cr15, cr1, {2}
 508:	5f444e41 	svcpl	0x00444e41
 50c:	41544144 	cmpmi	r4, r4, asr #2
 510:	4f490037 	svcmi	0x00490037
 514:	4358554d 	cmpmi	r8, #322961408	; 0x13400000
 518:	5f57535f 	svcpl	0x0057535f
 51c:	5f58554d 	svcpl	0x0058554d
 520:	5f4c5443 	svcpl	0x004c5443
 524:	5f444150 	svcpl	0x00444150
 528:	444e414e 	strbmi	r4, [lr], #-334	; 0xfffffeb2
 52c:	5441445f 	strbpl	r4, [r1], #-1119	; 0xfffffba1
 530:	49003041 	stmdbmi	r0, {r0, r6, ip, sp}
 534:	58554d4f 	ldmdapl	r5, {r0, r1, r2, r3, r6, r8, sl, fp, lr}^
 538:	57535f43 	ldrbpl	r5, [r3, -r3, asr #30]
 53c:	58554d5f 	ldmdapl	r5, {r0, r1, r2, r3, r4, r6, r8, sl, fp, lr}^
 540:	4c54435f 	mrrcmi	3, 5, r4, r4, cr15	; <UNPREDICTABLE>
 544:	4441505f 	strbmi	r5, [r1], #-95	; 0xffffffa1
 548:	4e414e5f 	mcrmi	14, 2, r4, cr1, cr15, {2}
 54c:	41445f44 	cmpmi	r4, r4, asr #30
 550:	00314154 	eorseq	r4, r1, r4, asr r1
 554:	554d4f49 	strbpl	r4, [sp, #-3913]	; 0xfffff0b7
 558:	535f4358 	cmppl	pc, #88, 6	; 0x60000001
 55c:	554d5f57 	strbpl	r5, [sp, #-3927]	; 0xfffff0a9
 560:	54435f58 	strbpl	r5, [r3], #-3928	; 0xfffff0a8
 564:	41505f4c 	cmpmi	r0, ip, asr #30
 568:	414e5f44 	cmpmi	lr, r4, asr #30
 56c:	445f444e 	ldrbmi	r4, [pc], #-1102	; 574 <shift+0x574>
 570:	32415441 	subcc	r5, r1, #1090519040	; 0x41000000
 574:	4d4f4900 	vstrmi.16	s9, [pc, #-0]	; 57c <shift+0x57c>	; <UNPREDICTABLE>
 578:	5f435855 	svcpl	0x00435855
 57c:	4d5f5753 	ldclmi	7, cr5, [pc, #-332]	; 438 <shift+0x438>
 580:	435f5855 	cmpmi	pc, #5570560	; 0x550000
 584:	505f4c54 	subspl	r4, pc, r4, asr ip	; <UNPREDICTABLE>
 588:	4e5f4441 	cdpmi	4, 5, cr4, cr15, cr1, {2}
 58c:	5f444e41 	svcpl	0x00444e41
 590:	41544144 	cmpmi	r4, r4, asr #2
 594:	4f490033 	svcmi	0x00490033
 598:	4358554d 	cmpmi	r8, #322961408	; 0x13400000
 59c:	5f57535f 	svcpl	0x0057535f
 5a0:	5f58554d 	svcpl	0x0058554d
 5a4:	5f4c5443 	svcpl	0x004c5443
 5a8:	5f444150 	svcpl	0x00444150
 5ac:	444e414e 	strbmi	r4, [lr], #-334	; 0xfffffeb2
 5b0:	5441445f 	strbpl	r4, [r1], #-1119	; 0xfffffba1
 5b4:	49003441 	stmdbmi	r0, {r0, r6, sl, ip, sp}
 5b8:	58554d4f 	ldmdapl	r5, {r0, r1, r2, r3, r6, r8, sl, fp, lr}^
 5bc:	57535f43 	ldrbpl	r5, [r3, -r3, asr #30]
 5c0:	58554d5f 	ldmdapl	r5, {r0, r1, r2, r3, r4, r6, r8, sl, fp, lr}^
 5c4:	4c54435f 	mrrcmi	3, 5, r4, r4, cr15	; <UNPREDICTABLE>
 5c8:	4441505f 	strbmi	r5, [r1], #-95	; 0xffffffa1
 5cc:	4e414e5f 	mcrmi	14, 2, r4, cr1, cr15, {2}
 5d0:	41445f44 	cmpmi	r4, r4, asr #30
 5d4:	00354154 	eorseq	r4, r5, r4, asr r1
 5d8:	554d4f49 	strbpl	r4, [sp, #-3913]	; 0xfffff0b7
 5dc:	535f4358 	cmppl	pc, #88, 6	; 0x60000001
 5e0:	554d5f57 	strbpl	r5, [sp, #-3927]	; 0xfffff0a9
 5e4:	54435f58 	strbpl	r5, [r3], #-3928	; 0xfffff0a8
 5e8:	41505f4c 	cmpmi	r0, ip, asr #30
 5ec:	414e5f44 	cmpmi	lr, r4, asr #30
 5f0:	445f444e 	ldrbmi	r4, [pc], #-1102	; 5f8 <shift+0x5f8>
 5f4:	36415441 	strbcc	r5, [r1], -r1, asr #8
 5f8:	45525000 	ldrbmi	r5, [r2, #-0]
 5fc:	54535f53 	ldrbpl	r5, [r3], #-3923	; 0xfffff0ad
 600:	00455441 	subeq	r5, r5, r1, asr #8
 604:	414d4441 	cmpmi	sp, r1, asr #8
 608:	5359535f 	cmppl	r9, #2080374785	; 0x7c000001
 60c:	4444415f 	strbmi	r4, [r4], #-351	; 0xfffffea1
 610:	4e490052 	mcrmi	0, 2, r0, cr9, cr2, {2}
 614:	54535f54 	ldrbpl	r5, [r3], #-3924	; 0xfffff0ac
 618:	53555441 	cmppl	r5, #1090519040	; 0x41000000
 61c:	004e455f 	subeq	r4, lr, pc, asr r5
 620:	5f444d43 	svcpl	0x00444d43
 624:	00475241 	subeq	r5, r7, r1, asr #4
 628:	5f4b4c42 	svcpl	0x004b4c42
 62c:	00545441 	subseq	r5, r4, r1, asr #8
 630:	5f4c4c44 	svcpl	0x004c4c44
 634:	54415453 	strbpl	r5, [r1], #-1107	; 0xfffffbad
 638:	49005355 	stmdbmi	r0, {r0, r2, r4, r6, r8, r9, ip, lr}
 63c:	58554d4f 	ldmdapl	r5, {r0, r1, r2, r3, r6, r8, sl, fp, lr}^
 640:	53555f43 	cmppl	r5, #268	; 0x10c
 644:	32434844 	subcc	r4, r3, #68, 16	; 0x440000
 648:	5441445f 	strbpl	r4, [r1], #-1119	; 0xfffffba1
 64c:	535f3241 	cmppl	pc, #268435460	; 0x10000004
 650:	43454c45 	movtmi	r4, #23621	; 0x5c45
 654:	4e495f54 	mcrmi	15, 2, r5, cr9, cr4, {2}
 658:	00545550 	subseq	r5, r4, r0, asr r5
 65c:	5f444d43 	svcpl	0x00444d43
 660:	30505352 	subscc	r5, r0, r2, asr r3
 664:	444d4300 	strbmi	r4, [sp], #-768	; 0xfffffd00
 668:	5053525f 	subspl	r5, r3, pc, asr r2
 66c:	4d430031 	stclmi	0, cr0, [r3, #-196]	; 0xffffff3c
 670:	53525f44 	cmppl	r2, #68, 30	; 0x110
 674:	43003250 	movwmi	r3, #592	; 0x250
 678:	525f444d 	subspl	r4, pc, #1291845632	; 0x4d000000
 67c:	00335053 	eorseq	r5, r3, r3, asr r0
 680:	5f4d4343 	svcpl	0x004d4343
 684:	52474343 	subpl	r4, r7, #201326593	; 0xc000001
 688:	6d450036 	stclvs	0, cr0, [r5, #-216]	; 0xffffff28
 68c:	505f636d 	subspl	r6, pc, sp, ror #6
 690:	6f436e69 	svcvs	0x00436e69
 694:	6769666e 	strbvs	r6, [r9, -lr, ror #12]!
 698:	5f534400 	svcpl	0x00534400
 69c:	52444441 	subpl	r4, r4, #1090519040	; 0x41000000
 6a0:	4f525000 	svcmi	0x00525000
 6a4:	54435f54 	strbpl	r5, [r3], #-3924	; 0xfffff0ac
 6a8:	49004c52 	stmdbmi	r0, {r1, r4, r6, sl, fp, lr}
 6ac:	58554d4f 	ldmdapl	r5, {r0, r1, r2, r3, r6, r8, sl, fp, lr}^
 6b0:	57535f43 	ldrbpl	r5, [r3, -r3, asr #30]
 6b4:	58554d5f 	ldmdapl	r5, {r0, r1, r2, r3, r4, r6, r8, sl, fp, lr}^
 6b8:	4c54435f 	mrrcmi	3, 5, r4, r4, cr15	; <UNPREDICTABLE>
 6bc:	4441505f 	strbmi	r5, [r1], #-95	; 0xffffffa1
 6c0:	4e414e5f 	mcrmi	14, 2, r4, cr1, cr15, {2}
 6c4:	45575f44 	ldrbmi	r5, [r7, #-3908]	; 0xfffff0bc
 6c8:	4900425f 	stmdbmi	r0, {r0, r1, r2, r3, r4, r6, r9, lr}
 6cc:	58554d4f 	ldmdapl	r5, {r0, r1, r2, r3, r6, r8, sl, fp, lr}^
 6d0:	57535f43 	ldrbpl	r5, [r3, -r3, asr #30]
 6d4:	4441505f 	strbmi	r5, [r1], #-95	; 0xffffffa1
 6d8:	4c54435f 	mrrcmi	3, 5, r4, r4, cr15	; <UNPREDICTABLE>
 6dc:	4441505f 	strbmi	r5, [r1], #-95	; 0xffffffa1
 6e0:	4e414e5f 	mcrmi	14, 2, r4, cr1, cr15, {2}
 6e4:	41445f44 	cmpmi	r4, r4, asr #30
 6e8:	31304154 	teqcc	r0, r4, asr r1
 6ec:	544e4900 	strbpl	r4, [lr], #-2304	; 0xfffff700
 6f0:	4749535f 	smlsldmi	r5, r9, pc, r3	; <UNPREDICTABLE>
 6f4:	5f4c414e 	svcpl	0x004c414e
 6f8:	49004e45 	stmdbmi	r0, {r0, r2, r6, r9, sl, fp, lr}
 6fc:	58554d4f 	ldmdapl	r5, {r0, r1, r2, r3, r6, r8, sl, fp, lr}^
 700:	57535f43 	ldrbpl	r5, [r3, -r3, asr #30]
 704:	4441505f 	strbmi	r5, [r1], #-95	; 0xffffffa1
 708:	4c54435f 	mrrcmi	3, 5, r4, r4, cr15	; <UNPREDICTABLE>
 70c:	4441505f 	strbmi	r5, [r1], #-95	; 0xffffffa1
 710:	4e414e5f 	mcrmi	14, 2, r4, cr1, cr15, {2}
 714:	41445f44 	cmpmi	r4, r4, asr #30
 718:	33304154 	teqcc	r0, #84, 2
 71c:	4d4f4900 	vstrmi.16	s9, [pc, #-0]	; 724 <shift+0x724>	; <UNPREDICTABLE>
 720:	5f435855 	svcpl	0x00435855
 724:	505f5753 	subspl	r5, pc, r3, asr r7	; <UNPREDICTABLE>
 728:	435f4441 	cmpmi	pc, #1090519040	; 0x41000000
 72c:	505f4c54 	subspl	r4, pc, r4, asr ip	; <UNPREDICTABLE>
 730:	4e5f4441 	cdpmi	4, 5, cr4, cr15, cr1, {2}
 734:	5f444e41 	svcpl	0x00444e41
 738:	41544144 	cmpmi	r4, r4, asr #2
 73c:	49003430 	stmdbmi	r0, {r4, r5, sl, ip, sp}
 740:	58554d4f 	ldmdapl	r5, {r0, r1, r2, r3, r6, r8, sl, fp, lr}^
 744:	57535f43 	ldrbpl	r5, [r3, -r3, asr #30]
 748:	4441505f 	strbmi	r5, [r1], #-95	; 0xffffffa1
 74c:	4c54435f 	mrrcmi	3, 5, r4, r4, cr15	; <UNPREDICTABLE>
 750:	4441505f 	strbmi	r5, [r1], #-95	; 0xffffffa1
 754:	4e414e5f 	mcrmi	14, 2, r4, cr1, cr15, {2}
 758:	41445f44 	cmpmi	r4, r4, asr #30
 75c:	35304154 	ldrcc	r4, [r0, #-340]!	; 0xfffffeac
 760:	4b4c4300 	blmi	1311368 <shift+0x1311368>
 764:	4e55545f 	mrcmi	4, 2, r5, cr5, cr15, {2}
 768:	54435f45 	strbpl	r5, [r3], #-3909	; 0xfffff0bb
 76c:	535f4c52 	cmppl	pc, #20992	; 0x5200
 770:	55544154 	ldrbpl	r4, [r4, #-340]	; 0xfffffeac
 774:	4f490053 	svcmi	0x00490053
 778:	4358554d 	cmpmi	r8, #322961408	; 0x13400000
 77c:	5f57535f 	svcpl	0x0057535f
 780:	5f444150 	svcpl	0x00444150
 784:	5f4c5443 	svcpl	0x004c5443
 788:	5f444150 	svcpl	0x00444150
 78c:	444e414e 	strbmi	r4, [lr], #-334	; 0xfffffeb2
 790:	5441445f 	strbpl	r4, [r1], #-1119	; 0xfffffba1
 794:	00373041 	eorseq	r3, r7, r1, asr #32
 798:	5f434d4d 	svcpl	0x00434d4d
 79c:	544f4f42 	strbpl	r4, [pc], #-3906	; 7a4 <shift+0x7a4>
 7a0:	4d4f4900 	vstrmi.16	s9, [pc, #-0]	; 7a8 <shift+0x7a8>	; <UNPREDICTABLE>
 7a4:	5f435855 	svcpl	0x00435855
 7a8:	505f5753 	subspl	r5, pc, r3, asr r7	; <UNPREDICTABLE>
 7ac:	435f4441 	cmpmi	pc, #1090519040	; 0x41000000
 7b0:	505f4c54 	subspl	r4, pc, r4, asr ip	; <UNPREDICTABLE>
 7b4:	4e5f4441 	cdpmi	4, 5, cr4, cr15, cr1, {2}
 7b8:	5f444e41 	svcpl	0x00444e41
 7bc:	41544144 	cmpmi	r4, r4, asr #2
 7c0:	49003230 	stmdbmi	r0, {r4, r5, r9, ip, sp}
 7c4:	58554d4f 	ldmdapl	r5, {r0, r1, r2, r3, r6, r8, sl, fp, lr}^
 7c8:	57535f43 	ldrbpl	r5, [r3, -r3, asr #30]
 7cc:	4441505f 	strbmi	r5, [r1], #-95	; 0xffffffa1
 7d0:	4c54435f 	mrrcmi	3, 5, r4, r4, cr15	; <UNPREDICTABLE>
 7d4:	4441505f 	strbmi	r5, [r1], #-95	; 0xffffffa1
 7d8:	4e414e5f 	mcrmi	14, 2, r4, cr1, cr15, {2}
 7dc:	41445f44 	cmpmi	r4, r4, asr #30
 7e0:	30304154 	eorscc	r4, r0, r4, asr r1
 7e4:	44535500 	ldrbmi	r5, [r3], #-1280	; 0xfffffb00
 7e8:	545f4348 	ldrbpl	r4, [pc], #-840	; 7f0 <shift+0x7f0>
 7ec:	00657079 	rsbeq	r7, r5, r9, ror r0
 7f0:	2e636d6d 	cdpcs	13, 6, cr6, cr3, cr13, {3}
 7f4:	53550063 	cmppl	r5, #99	; 0x63
 7f8:	5f434844 	svcpl	0x00434844
 7fc:	65736552 	ldrbvs	r6, [r3, #-1362]!	; 0xfffffaae
 800:	73750074 	cmnvc	r5, #116	; 0x74
 804:	32636864 	rsbcc	r6, r3, #100, 16	; 0x640000
 808:	6765725f 			; <UNDEFINED> instruction: 0x6765725f
 80c:	53455200 	movtpl	r5, #20992	; 0x5200
 810:	45565245 	ldrbmi	r5, [r6, #-581]	; 0xfffffdbb
 814:	00325f44 	eorseq	r5, r2, r4, asr #30
 818:	48445355 	stmdami	r4, {r0, r2, r4, r6, r8, r9, ip, lr}^
 81c:	65535f43 	ldrbvs	r5, [r3, #-3907]	; 0xfffff0bd
 820:	6f43646e 	svcvs	0x0043646e
 824:	6e616d6d 	cdpvs	13, 6, cr6, cr1, cr13, {3}
 828:	494d0064 	stmdbmi	sp, {r2, r5, r6}^
 82c:	54435f58 	strbpl	r5, [r3], #-3928	; 0xfffff0a8
 830:	49004c52 	stmdbmi	r0, {r1, r4, r6, sl, fp, lr}
 834:	535f544e 	cmppl	pc, #1308622848	; 0x4e000000
 838:	55544154 	ldrbpl	r4, [r4, #-340]	; 0xfffffeac
 83c:	616d0053 	qdsubvs	r0, r3, sp
 840:	49006b73 	stmdbmi	r0, {r0, r1, r4, r5, r6, r8, r9, fp, sp, lr}
 844:	58554d4f 	ldmdapl	r5, {r0, r1, r2, r3, r6, r8, sl, fp, lr}^
 848:	57535f43 	ldrbpl	r5, [r3, -r3, asr #30]
 84c:	4441505f 	strbmi	r5, [r1], #-95	; 0xffffffa1
 850:	4c54435f 	mrrcmi	3, 5, r4, r4, cr15	; <UNPREDICTABLE>
 854:	4441505f 	strbmi	r5, [r1], #-95	; 0xffffffa1
 858:	4e414e5f 	mcrmi	14, 2, r4, cr1, cr15, {2}
 85c:	41445f44 	cmpmi	r4, r4, asr #30
 860:	36304154 			; <UNDEFINED> instruction: 0x36304154
 864:	4d4f4900 	vstrmi.16	s9, [pc, #-0]	; 86c <shift+0x86c>	; <UNPREDICTABLE>
 868:	5f435855 	svcpl	0x00435855
 86c:	48445355 	stmdami	r4, {r0, r2, r4, r6, r8, r9, ip, lr}^
 870:	435f3243 	cmpmi	pc, #805306372	; 0x30000004
 874:	535f444d 	cmppl	pc, #1291845632	; 0x4d000000
 878:	43454c45 	movtmi	r4, #23621	; 0x5c45
 87c:	4e495f54 	mcrmi	15, 2, r5, cr9, cr4, {2}
 880:	00545550 	subseq	r5, r4, r0, asr r5
 884:	4f545541 	svcmi	0x00545541
 888:	31444d43 	cmpcc	r4, r3, asr #26
 88c:	52455f32 	subpl	r5, r5, #50, 30	; 0xc8
 890:	54535f52 	ldrbpl	r5, [r3], #-3922	; 0xfffff0ae
 894:	53555441 	cmppl	r5, #1090519040	; 0x41000000
 898:	4c4c4400 	cfstrdmi	mvd4, [ip], {-0}
 89c:	5254435f 	subspl	r4, r4, #2080374785	; 0x7c000001
 8a0:	4f49004c 	svcmi	0x0049004c
 8a4:	4358554d 	cmpmi	r8, #322961408	; 0x13400000
 8a8:	4453555f 	ldrbmi	r5, [r3], #-1375	; 0xfffffaa1
 8ac:	5f324348 	svcpl	0x00324348
 8b0:	41544144 	cmpmi	r4, r4, asr #2
 8b4:	45535f36 	ldrbmi	r5, [r3, #-3894]	; 0xfffff0ca
 8b8:	5443454c 	strbpl	r4, [r3], #-1356	; 0xfffffab4
 8bc:	504e495f 	subpl	r4, lr, pc, asr r9
 8c0:	55005455 	strpl	r5, [r0, #-1109]	; 0xfffffbab
 8c4:	43484453 	movtmi	r4, #33875	; 0x8453
 8c8:	696e495f 	stmdbvs	lr!, {r0, r1, r2, r3, r4, r6, r8, fp, lr}^
 8cc:	53550074 	cmppl	r5, #116	; 0x74
 8d0:	5f434844 	svcpl	0x00434844
 8d4:	64616552 	strbtvs	r6, [r1], #-1362	; 0xfffffaae
 8d8:	70736552 	rsbsvc	r6, r3, r2, asr r5
 8dc:	65736e6f 	ldrbvs	r6, [r3, #-3695]!	; 0xfffff191
 8e0:	6d697400 	cfstrdvs	mvd7, [r9, #-0]
 8e4:	74756f65 	ldrbtvc	r6, [r5], #-3941	; 0xfffff09b
 8e8:	4d444100 	stfmie	f4, [r4, #-0]
 8ec:	52455f41 	subpl	r5, r5, #260	; 0x104
 8f0:	54535f52 	ldrbpl	r5, [r3], #-3922	; 0xfffff0ae
 8f4:	53555441 	cmppl	r5, #1090519040	; 0x41000000
 8f8:	4d4f4900 	vstrmi.16	s9, [pc, #-0]	; 900 <shift+0x900>	; <UNPREDICTABLE>
 8fc:	5f435855 	svcpl	0x00435855
 900:	505f5753 	subspl	r5, pc, r3, asr r7	; <UNPREDICTABLE>
 904:	435f4441 	cmpmi	pc, #1090519040	; 0x41000000
 908:	505f4c54 	subspl	r4, pc, r4, asr ip	; <UNPREDICTABLE>
 90c:	4e5f4441 	cdpmi	4, 5, cr4, cr15, cr1, {2}
 910:	5f444e41 	svcpl	0x00444e41
 914:	425f4552 	subsmi	r4, pc, #343932928	; 0x14800000
	...

Disassembly of section .debug_frame:

00000000 <.debug_frame>:
   0:	0000000c 	andeq	r0, r0, ip
   4:	ffffffff 			; <UNDEFINED> instruction: 0xffffffff
   8:	7c020001 	stcvc	0, cr0, [r2], {1}
   c:	000d0c0e 	andeq	r0, sp, lr, lsl #24
  10:	0000001c 	andeq	r0, r0, ip, lsl r0
  14:	00000000 	andeq	r0, r0, r0
  18:	8010003c 	andshi	r0, r0, ip, lsr r0
  1c:	000000d6 	ldrdeq	r0, [r0], -r6
  20:	87040e41 	strhi	r0, [r4, -r1, asr #28]
  24:	070d4101 	streq	r4, [sp, -r1, lsl #2]
  28:	0d0d6602 	stceq	6, cr6, [sp, #-8]
  2c:	000ec742 	andeq	ip, lr, r2, asr #14
  30:	00000024 	andeq	r0, r0, r4, lsr #32
  34:	00000000 	andeq	r0, r0, r0
  38:	80100112 	andshi	r0, r0, r2, lsl r1
  3c:	00000034 	andeq	r0, r0, r4, lsr r0
  40:	87040e41 	strhi	r0, [r4, -r1, asr #28]
  44:	100e4101 	andne	r4, lr, r1, lsl #2
  48:	53070d41 	movwpl	r0, #32065	; 0x7d41
  4c:	0d41040e 	cfstrdeq	mvd0, [r1, #-56]	; 0xffffffc8
  50:	0ec7420d 	cdpeq	2, 12, cr4, cr7, cr13, {0}
  54:	00000000 	andeq	r0, r0, r0
  58:	0000001c 	andeq	r0, r0, ip, lsl r0
  5c:	00000000 	andeq	r0, r0, r0
  60:	80100146 	andshi	r0, r0, r6, asr #2
  64:	0000002c 	andeq	r0, r0, ip, lsr #32
  68:	87040e41 	strhi	r0, [r4, -r1, asr #28]
  6c:	070d4101 	streq	r4, [sp, -r1, lsl #2]
  70:	420d0d51 	andmi	r0, sp, #5184	; 0x1440
  74:	00000ec7 	andeq	r0, r0, r7, asr #29
  78:	00000020 	andeq	r0, r0, r0, lsr #32
  7c:	00000000 	andeq	r0, r0, r0
  80:	80100172 	andshi	r0, r0, r2, ror r1
  84:	0000002a 	andeq	r0, r0, sl, lsr #32
  88:	87080e41 	strhi	r0, [r8, -r1, asr #28]
  8c:	41018e02 	tstmi	r1, r2, lsl #28
  90:	0d41100e 	stcleq	0, cr1, [r1, #-56]	; 0xffffffc8
  94:	080e5007 	stmdaeq	lr, {r0, r1, r2, ip, lr}
  98:	000d0d41 	andeq	r0, sp, r1, asr #26
  9c:	00000024 	andeq	r0, r0, r4, lsr #32
  a0:	00000000 	andeq	r0, r0, r0
  a4:	8010019c 	mulshi	r0, ip, r1
  a8:	00000016 	andeq	r0, r0, r6, lsl r0
  ac:	87040e41 	strhi	r0, [r4, -r1, asr #28]
  b0:	100e4101 	andne	r4, lr, r1, lsl #2
  b4:	44070d41 	strmi	r0, [r7], #-3393	; 0xfffff2bf
  b8:	0d41040e 	cfstrdeq	mvd0, [r1, #-56]	; 0xffffffc8
  bc:	0ec7420d 	cdpeq	2, 12, cr4, cr7, cr13, {0}
  c0:	00000000 	andeq	r0, r0, r0
  c4:	0000000c 	andeq	r0, r0, ip
  c8:	ffffffff 			; <UNDEFINED> instruction: 0xffffffff
  cc:	7c020001 	stcvc	0, cr0, [r2], {1}
  d0:	000d0c0e 	andeq	r0, sp, lr, lsl #24
  d4:	00000020 	andeq	r0, r0, r0, lsr #32
  d8:	000000c4 	andeq	r0, r0, r4, asr #1
  dc:	801001b2 			; <UNDEFINED> instruction: 0x801001b2
  e0:	00000084 	andeq	r0, r0, r4, lsl #1
  e4:	87080e41 	strhi	r0, [r8, -r1, asr #28]
  e8:	41018e02 	tstmi	r1, r2, lsl #28
  ec:	0d41300e 	stcleq	0, cr3, [r1, #-56]	; 0xffffffc8
  f0:	080e7d07 	stmdaeq	lr, {r0, r1, r2, r8, sl, fp, ip, sp, lr}
  f4:	000d0d41 	andeq	r0, sp, r1, asr #26
  f8:	0000000c 	andeq	r0, r0, ip
  fc:	ffffffff 			; <UNDEFINED> instruction: 0xffffffff
 100:	7c020001 	stcvc	0, cr0, [r2], {1}
 104:	000d0c0e 	andeq	r0, sp, lr, lsl #24
 108:	00000020 	andeq	r0, r0, r0, lsr #32
 10c:	000000f8 	strdeq	r0, [r0], -r8
 110:	80100238 	andshi	r0, r0, r8, lsr r2
 114:	00000018 	andeq	r0, r0, r8, lsl r0
 118:	87080e41 	strhi	r0, [r8, -r1, asr #28]
 11c:	41018e02 	tstmi	r1, r2, lsl #28
 120:	0d41100e 	stcleq	0, cr1, [r1, #-56]	; 0xffffffc8
 124:	080e4707 	stmdaeq	lr, {r0, r1, r2, r8, r9, sl, lr}
 128:	000d0d41 	andeq	r0, sp, r1, asr #26
 12c:	00000020 	andeq	r0, r0, r0, lsr #32
 130:	000000f8 	strdeq	r0, [r0], -r8
 134:	80100250 	andshi	r0, r0, r0, asr r2
 138:	0000002a 	andeq	r0, r0, sl, lsr #32
 13c:	87080e41 	strhi	r0, [r8, -r1, asr #28]
 140:	41018e02 	tstmi	r1, r2, lsl #28
 144:	0d41100e 	stcleq	0, cr1, [r1, #-56]	; 0xffffffc8
 148:	080e5007 	stmdaeq	lr, {r0, r1, r2, ip, lr}
 14c:	000d0d41 	andeq	r0, sp, r1, asr #26
 150:	00000020 	andeq	r0, r0, r0, lsr #32
 154:	000000f8 	strdeq	r0, [r0], -r8
 158:	8010027a 	andshi	r0, r0, sl, ror r2
 15c:	000000d2 	ldrdeq	r0, [r0], -r2
 160:	87080e41 	strhi	r0, [r8, -r1, asr #28]
 164:	41018e02 	tstmi	r1, r2, lsl #28
 168:	0d41680e 	stcleq	8, cr6, [r1, #-56]	; 0xffffffc8
 16c:	0e640207 	cdpeq	2, 6, cr0, cr4, cr7, {0}
 170:	0d0d4108 	stfeqs	f4, [sp, #-32]	; 0xffffffe0
 174:	00000020 	andeq	r0, r0, r0, lsr #32
 178:	000000f8 	strdeq	r0, [r0], -r8
 17c:	8010034c 	andshi	r0, r0, ip, asr #6
 180:	00000194 	muleq	r0, r4, r1
 184:	87080e41 	strhi	r0, [r8, -r1, asr #28]
 188:	41018e02 	tstmi	r1, r2, lsl #28
 18c:	0d41180e 	stcleq	8, cr1, [r1, #-56]	; 0xffffffc8
 190:	0ec50207 	cdpeq	2, 12, cr0, cr5, cr7, {0}
 194:	0d0d4108 	stfeqs	f4, [sp, #-32]	; 0xffffffe0
 198:	00000038 	andeq	r0, r0, r8, lsr r0
 19c:	000000f8 	strdeq	r0, [r0], -r8
 1a0:	801004e0 	andshi	r0, r0, r0, ror #9
 1a4:	0000002c 	andeq	r0, r0, ip, lsr #32
 1a8:	80100e41 	andshi	r0, r0, r1, asr #28
 1ac:	82038104 	andhi	r8, r3, #4, 2
 1b0:	41018302 	tstmi	r1, r2, lsl #6
 1b4:	0687180e 	streq	r1, [r7], lr, lsl #16
 1b8:	0e41058e 	cdpeq	5, 4, cr0, cr1, cr14, {4}
 1bc:	070d4120 	streq	r4, [sp, -r0, lsr #2]
 1c0:	41180e4d 	tstmi	r8, sp, asr #28
 1c4:	ce420d0d 	cdpgt	13, 4, cr0, cr2, cr13, {0}
 1c8:	41100ec7 	tstmi	r0, r7, asr #29
 1cc:	c0c1c2c3 	sbcgt	ip, r1, r3, asr #5
 1d0:	0000000e 	andeq	r0, r0, lr
 1d4:	00000018 	andeq	r0, r0, r8, lsl r0
 1d8:	000000f8 	strdeq	r0, [r0], -r8
 1dc:	8010050c 	andshi	r0, r0, ip, lsl #10
 1e0:	000000f6 	strdeq	r0, [r0], -r6
 1e4:	87080e41 	strhi	r0, [r8, -r1, asr #28]
 1e8:	41018e02 	tstmi	r1, r2, lsl #28
 1ec:	0000070d 	andeq	r0, r0, sp, lsl #14
 1f0:	0000000c 	andeq	r0, r0, ip
 1f4:	ffffffff 			; <UNDEFINED> instruction: 0xffffffff
 1f8:	7c020001 	stcvc	0, cr0, [r2], {1}
 1fc:	000d0c0e 	andeq	r0, sp, lr, lsl #24
 200:	00000020 	andeq	r0, r0, r0, lsr #32
 204:	000001f0 	strdeq	r0, [r0], -r0	; <UNPREDICTABLE>
 208:	80100604 	andshi	r0, r0, r4, lsl #12
 20c:	0000042a 	andeq	r0, r0, sl, lsr #8
 210:	87040e41 	strhi	r0, [r4, -r1, asr #28]
 214:	070d4101 	streq	r4, [sp, -r1, lsl #2]
 218:	0d021003 	stceq	0, cr1, [r2, #-12]
 21c:	0ec7420d 	cdpeq	2, 12, cr4, cr7, cr13, {0}
 220:	00000000 	andeq	r0, r0, r0
 224:	00000018 	andeq	r0, r0, r8, lsl r0
 228:	000001f0 	strdeq	r0, [r0], -r0	; <UNPREDICTABLE>
 22c:	80100a2e 	andshi	r0, r0, lr, lsr #20
 230:	000001b6 			; <UNDEFINED> instruction: 0x000001b6
 234:	87080e41 	strhi	r0, [r8, -r1, asr #28]
 238:	41018e02 	tstmi	r1, r2, lsl #28
 23c:	0000070d 	andeq	r0, r0, sp, lsl #14
 240:	00000024 	andeq	r0, r0, r4, lsr #32
 244:	000001f0 	strdeq	r0, [r0], -r0	; <UNPREDICTABLE>
 248:	80100be4 	andshi	r0, r0, r4, ror #23
 24c:	00000064 	andeq	r0, r0, r4, rrx
 250:	87040e41 	strhi	r0, [r4, -r1, asr #28]
 254:	100e4101 	andne	r4, lr, r1, lsl #2
 258:	6b070d41 	blvs	1c3764 <shift+0x1c3764>
 25c:	0d41040e 	cfstrdeq	mvd0, [r1, #-56]	; 0xffffffc8
 260:	0ec7420d 	cdpeq	2, 12, cr4, cr7, cr13, {0}
 264:	00000000 	andeq	r0, r0, r0
 268:	00000020 	andeq	r0, r0, r0, lsr #32
 26c:	000001f0 	strdeq	r0, [r0], -r0	; <UNPREDICTABLE>
 270:	80100c48 	andshi	r0, r0, r8, asr #24
 274:	00000118 	andeq	r0, r0, r8, lsl r1
 278:	87080e41 	strhi	r0, [r8, -r1, asr #28]
 27c:	41018e02 	tstmi	r1, r2, lsl #28
 280:	0d41100e 	stcleq	0, cr1, [r1, #-56]	; 0xffffffc8
 284:	0e870207 	cdpeq	2, 8, cr0, cr7, cr7, {0}
 288:	0d0d4108 	stfeqs	f4, [sp, #-32]	; 0xffffffe0
 28c:	00000024 	andeq	r0, r0, r4, lsr #32
 290:	000001f0 	strdeq	r0, [r0], -r0	; <UNPREDICTABLE>
 294:	80100d60 	andshi	r0, r0, r0, ror #26
 298:	000000ba 	strheq	r0, [r0], -sl
 29c:	87040e41 	strhi	r0, [r4, -r1, asr #28]
 2a0:	180e4101 	stmdane	lr, {r0, r8, lr}
 2a4:	02070d41 	andeq	r0, r7, #4160	; 0x1040
 2a8:	41040e56 	tstmi	r4, r6, asr lr
 2ac:	c7420d0d 	strbgt	r0, [r2, -sp, lsl #26]
 2b0:	0000000e 	andeq	r0, r0, lr
 2b4:	0000000c 	andeq	r0, r0, ip
 2b8:	ffffffff 			; <UNDEFINED> instruction: 0xffffffff
 2bc:	7c010001 	stcvc	0, cr0, [r1], {1}
 2c0:	000d0c0e 	andeq	r0, sp, lr, lsl #24
 2c4:	0000000c 	andeq	r0, r0, ip
 2c8:	000002b4 			; <UNDEFINED> instruction: 0x000002b4
 2cc:	80100e21 	andshi	r0, r0, r1, lsr #28
 2d0:	0000025c 	andeq	r0, r0, ip, asr r2
 2d4:	0000000c 	andeq	r0, r0, ip
 2d8:	ffffffff 			; <UNDEFINED> instruction: 0xffffffff
 2dc:	7c010001 	stcvc	0, cr0, [r1], {1}
 2e0:	000d0c0e 	andeq	r0, sp, lr, lsl #24
 2e4:	00000014 	andeq	r0, r0, r4, lsl r0
 2e8:	000002d4 	ldrdeq	r0, [r0], -r4
 2ec:	80101099 	mulshi	r0, r9, r0
 2f0:	0000000c 	andeq	r0, r0, ip
 2f4:	0e018e42 	cdpeq	14, 0, cr8, cr1, cr2, {2}
 2f8:	00000008 	andeq	r0, r0, r8
